ARM GAS  /tmp/ccNOn6pJ.s 			page 1


   1              		.file	"mode7.cpp"
   8 0000 A2030000 		.text
   8      02009700 
   8      00000201 
   8      FB0E0A00 
   8      01010101 
   9              	.Ltext0:
  10              		.align	2
  11              		.p2align 5,,31
  12              		.global	_Z25DrawBGMode7Background16R3Phii
  13              		.type	_Z25DrawBGMode7Background16R3Phii, %function
  14              	_Z25DrawBGMode7Background16R3Phii:
  15              	.LFB29:
  16              		.file 1 "mode7.cpp"
   1:mode7.cpp     **** #include "snes9x.h"
   2:mode7.cpp     **** #include "memmap.h"
   3:mode7.cpp     **** #include "ppu.h"
   4:mode7.cpp     **** #include "cpuexec.h"
   5:mode7.cpp     **** #include "display.h"
   6:mode7.cpp     **** #include "gfx.h"
   7:mode7.cpp     **** #include "apu.h"
   8:mode7.cpp     **** 
   9:mode7.cpp     **** extern struct SLineData LineData[240];
  10:mode7.cpp     **** extern struct SLineMatrixData LineMatrixData [240];
  11:mode7.cpp     **** extern uint8  Mode7Depths [2];
  12:mode7.cpp     **** 
  13:mode7.cpp     **** #define M7 19
  14:mode7.cpp     **** 
  15:mode7.cpp     **** /*
  16:mode7.cpp     **** void DrawBGMode7Background16 (uint8 *Screen, int bg, int depth)
  17:mode7.cpp     **** {
  18:mode7.cpp     ****     RENDER_BACKGROUND_MODE7ADDSUB (depth, GFX.ScreenColors [b & 0xff]);
  19:mode7.cpp     **** }
  20:mode7.cpp     **** */
  21:mode7.cpp     **** 
  22:mode7.cpp     **** #ifdef __DEBUG__
  23:mode7.cpp     ****  
  24:mode7.cpp     **** 	#define DMSG(rop) printf("Rendering Mode7 w/prio, ROp: " rop ", R:%d, r2130: %d, bg: %d\n", PPU.Mo
  25:mode7.cpp     **** #else
  26:mode7.cpp     **** 	#define DMSG(rop)
  27:mode7.cpp     **** #endif
  28:mode7.cpp     **** 
  29:mode7.cpp     **** void DrawBGMode7Background16R0 (uint8 *Screen, int bg, int depth);
  30:mode7.cpp     **** void DrawBGMode7Background16R1R2 (uint8 *Screen, int bg, int depth);
  31:mode7.cpp     **** void DrawBGMode7Background16R3 (uint8 *Screen, int bg, int depth);
  32:mode7.cpp     **** 
  33:mode7.cpp     **** void DrawBGMode7Background16 (uint8 *Screen, int bg, int depth)
  34:mode7.cpp     **** {
  35:mode7.cpp     **** 	DMSG("opaque");
  36:mode7.cpp     ****     CHECK_SOUND(); 
  37:mode7.cpp     **** 
ARM GAS  /tmp/ccNOn6pJ.s 			page 2


  38:mode7.cpp     ****     if (GFX.r2130 & 1) { 
  39:mode7.cpp     **** 		if (IPPU.DirectColourMapsNeedRebuild) S9xBuildDirectColourMaps (); 
  40:mode7.cpp     **** 		GFX.ScreenColors = DirectColourMaps [0]; 
  41:mode7.cpp     ****     } else  GFX.ScreenColors = IPPU.ScreenColors;
  42:mode7.cpp     **** 
  43:mode7.cpp     **** 	switch (PPU.Mode7Repeat) {
  44:mode7.cpp     **** 		case 0: 
  45:mode7.cpp     **** 			DrawBGMode7Background16R0(Screen, bg, depth);
  46:mode7.cpp     **** 			return;
  47:mode7.cpp     **** 		case 3:
  48:mode7.cpp     **** 			DrawBGMode7Background16R3(Screen, bg, depth);
  49:mode7.cpp     **** 			return;
  50:mode7.cpp     **** 		default:
  51:mode7.cpp     **** 			DrawBGMode7Background16R1R2(Screen, bg, depth);
  52:mode7.cpp     **** 			return;
  53:mode7.cpp     **** 	} 
  54:mode7.cpp     **** }
  55:mode7.cpp     **** 
  56:mode7.cpp     **** #define M7C	0x1fff
  57:mode7.cpp     **** 
  58:mode7.cpp     **** void DrawBGMode7Background16R3 (uint8 *Screen, int bg, int depth)
  17              		.loc 1 58 0
  18              		@ args = 0, pretend = 0, frame = 136
  19              		@ frame_needed = 0, uses_anonymous_args = 0
  20              	.LVL0:
  21              	.LBB2:
  59:mode7.cpp     **** {
  60:mode7.cpp     ****     int aa, cc;  
  61:mode7.cpp     ****     int startx; 
  62:mode7.cpp     ****     uint32 Left = 0; 
  63:mode7.cpp     ****     uint32 Right = 256; 
  64:mode7.cpp     ****     uint32 ClipCount = GFX.pCurrentClip->Count [0]; 
  22              		.loc 1 64 0
  23 0000 90C39FE5 		ldr	ip, .L20
  24              	.LBE2:
  25              		.loc 1 58 0
  26 0004 F04F2DE9 		stmfd	sp!, {r4, r5, r6, r7, r8, r9, sl, fp, lr}
  27              	.LCFI0:
  28              	.LBB3:
  65:mode7.cpp     ****     
  66:mode7.cpp     ****     int32 HOffset; 
  67:mode7.cpp     ****     int32 VOffset; 
  68:mode7.cpp     ****     int32 CentreX; 
  69:mode7.cpp     ****     int32 CentreY;
  70:mode7.cpp     ****     uint8 *d;
  71:mode7.cpp     ****     uint16 *p;
  72:mode7.cpp     ****     int dir;
  73:mode7.cpp     ****     int yy; 
  74:mode7.cpp     ****     int xx; 
  75:mode7.cpp     ****     int yy3;
  76:mode7.cpp     ****     int xx3;
  77:mode7.cpp     ****     int BB; 
  78:mode7.cpp     ****     int DD; 
  79:mode7.cpp     ****     uint32 Line;
  80:mode7.cpp     ****     uint32 clip; 
  81:mode7.cpp     ****     uint8 b; 
  82:mode7.cpp     ****     uint8 *Depth;
ARM GAS  /tmp/ccNOn6pJ.s 			page 3


  83:mode7.cpp     **** 
  84:mode7.cpp     ****     if (!ClipCount) ClipCount = 1; 
  85:mode7.cpp     **** 
  86:mode7.cpp     ****     Screen += GFX.StartY * GFX_PITCH; 
  29              		.loc 1 86 0
  30 0008 48109CE5 		ldr	r1, [ip, #72]
  31              	.LVL1:
  32              		.loc 1 64 0
  33 000c 50309CE5 		ldr	r3, [ip, #80]
  34              	.LBE3:
  35              		.loc 1 58 0
  36 0010 88D04DE2 		sub	sp, sp, #136
  37              	.LCFI1:
  38              	.LBB4:
  39              		.loc 1 86 0
  40 0014 00108DE5 		str	r1, [sp, #0]
  41              	.LVL2:
  42              		.loc 1 64 0
  43 0018 30308DE5 		str	r3, [sp, #48]
  87:mode7.cpp     ****     Depth = GFX.DB + GFX.StartY * GFX_PPL;
  88:mode7.cpp     ****     struct SLineMatrixData *l = &LineMatrixData [GFX.StartY]; 
  89:mode7.cpp     **** 
  90:mode7.cpp     ****     for (Line = GFX.StartY; Line <= GFX.EndY; Line++, Screen += GFX_PITCH, Depth += GFX_PPL, l++) {
  91:mode7.cpp     **** 	HOffset = ((int32) LineData[Line].BG[0].HOffset << M7) >> M7; 
  92:mode7.cpp     **** 	VOffset = ((int32) LineData[Line].BG[0].VOffset << M7) >> M7; 
  93:mode7.cpp     **** 
  94:mode7.cpp     **** 	CentreX = ((int32) l->CentreX << M7) >> M7; 
  95:mode7.cpp     **** 	CentreY = ((int32) l->CentreY << M7) >> M7; 
  96:mode7.cpp     **** 
  97:mode7.cpp     **** 	if (PPU.Mode7VFlip) yy = 255 - (int) Line; 
  98:mode7.cpp     **** 	else yy = Line; 
  99:mode7.cpp     **** 
 100:mode7.cpp     **** 	yy += VOffset - CentreY;
 101:mode7.cpp     **** 	xx = HOffset - CentreX;
 102:mode7.cpp     **** 
 103:mode7.cpp     **** 	BB = l->MatrixB * yy + (CentreX << 8); 
 104:mode7.cpp     **** 	DD = l->MatrixD * yy + (CentreY << 8); 
 105:mode7.cpp     **** 	
 106:mode7.cpp     **** 	yy3 = ((yy + CentreY) & 7) << 4;
 107:mode7.cpp     **** 
 108:mode7.cpp     **** 	for (clip = 0; clip < ClipCount; clip++) 
 109:mode7.cpp     **** 	{ 
 110:mode7.cpp     **** 	    if (GFX.pCurrentClip->Count [0]){ 
 111:mode7.cpp     **** 			Left = GFX.pCurrentClip->Left [clip][0]; 
 112:mode7.cpp     **** 			Right = GFX.pCurrentClip->Right [clip][0]; 
 113:mode7.cpp     **** 			if (Right <= Left) continue; 
 114:mode7.cpp     **** 	    	} 
 115:mode7.cpp     **** 	    p = (uint16 *) Screen + Left; 
 116:mode7.cpp     **** 	    d = Depth + Left;
 117:mode7.cpp     **** 
 118:mode7.cpp     **** 	    if (PPU.Mode7HFlip) { 
 119:mode7.cpp     **** 			startx = Right - 1; 
 120:mode7.cpp     **** 			aa = -l->MatrixA; 
 121:mode7.cpp     **** 			cc = -l->MatrixC;
 122:mode7.cpp     **** 			dir = -1;
 123:mode7.cpp     **** 	    } else { 
 124:mode7.cpp     **** 			startx = Left; 
ARM GAS  /tmp/ccNOn6pJ.s 			page 4


 125:mode7.cpp     **** 			aa = l->MatrixA; 
 126:mode7.cpp     **** 			cc = l->MatrixC;
 127:mode7.cpp     **** 			dir = 1;
 128:mode7.cpp     **** 	    } 
 129:mode7.cpp     **** 
 130:mode7.cpp     **** 
 131:mode7.cpp     **** 		xx3 = (startx + HOffset);
 132:mode7.cpp     **** 
 133:mode7.cpp     **** 		asm volatile (
 134:mode7.cpp     **** 		"1:						\n"
 135:mode7.cpp     **** 		"	ldrb	r0, [%[d]], #1			\n"
 136:mode7.cpp     **** 		"	add	%[p], %[p], #2			\n"
 137:mode7.cpp     **** 		"	cmp	%[depth], r0			\n"
 138:mode7.cpp     **** 		"	bls	4f				\n"
 139:mode7.cpp     **** 		"	mov	r3, %[AA], asr #18		\n"	
 140:mode7.cpp     **** 		"	orrs	r3, r3, %[CC], asr #18		\n"			
 141:mode7.cpp     **** 		"	bne	2f				\n" 
 142:mode7.cpp     **** 		"						\n"
 143:mode7.cpp     **** 		"	mov	r3, %[CC], asr #11		\n"  
 144:mode7.cpp     **** 		"	mov	r1, %[AA], asr #11		\n" 
 145:mode7.cpp     **** 		"	add	r3, r1, r3, lsl #7		\n" 
 146:mode7.cpp     **** 		//"	mov	r3, r3, lsl #1			\n"
 147:mode7.cpp     **** 		"	ldrb	r3, [%[VRAM], r3, lsl #1]	\n"
 148:mode7.cpp     **** 		"						\n"
 149:mode7.cpp     **** 		"	and	r1, %[CC], #(7 << 8)		\n"
 150:mode7.cpp     **** 		"	add	r3, %[VRAM], r3, lsl #7		\n"
 151:mode7.cpp     **** 		"	and	r0, %[AA], #(7 << 8)		\n"
 152:mode7.cpp     **** 		"	add	r3, r3, r1, asr #4 		\n"
 153:mode7.cpp     **** 		"	add	r3, r3, r0, asr #7		\n"
 154:mode7.cpp     **** 		"						\n"
 155:mode7.cpp     **** 		"	ldr	r1, %[daa]			\n"
 156:mode7.cpp     **** 		"	ldrb	r0, [r3, #1]			\n"
 157:mode7.cpp     **** 		"	add	%[AA], %[AA], r1		\n"
 158:mode7.cpp     **** 		"	cmp	r0, #0				\n"		
 159:mode7.cpp     **** 		"	ldrne	r1, [%[colors], r0, lsl #2]	\n"	
 160:mode7.cpp     **** 		"	add	%[xx3], %[xx3], %[dir]		\n"
 161:mode7.cpp     **** 		"	strneb	%[depth], [%[d], #-1]		\n"
 162:mode7.cpp     **** 		"	ldr	r0, %[dcc]			\n"
 163:mode7.cpp     **** 		"	strneh	r1, [%[p], #-2]			\n"		
 164:mode7.cpp     **** 		"						\n"
 165:mode7.cpp     **** 		"	add	%[CC], %[CC], r0		\n"
 166:mode7.cpp     **** 		//"	add	%[d], %[d], #1			\n"
 167:mode7.cpp     **** 		//"	add	%[p], %[p], #2			\n"
 168:mode7.cpp     **** 		"	subs	%[x], %[x], #1			\n"
 169:mode7.cpp     **** 		"	bne	1b				\n"
 170:mode7.cpp     **** 		"	b	3f				\n"
 171:mode7.cpp     **** 		"2:						\n"
 172:mode7.cpp     **** 		//"	and	r1, %[yy3], #7			\n"
 173:mode7.cpp     **** 		"	and	r0, %[xx3], #7			\n"
 174:mode7.cpp     **** 		//"	mov	r3, r1, lsl #4 			\n"
 175:mode7.cpp     **** 		"	add	r3, %[yy3], r0, lsl #1 		\n"
 176:mode7.cpp     **** 		"						\n"
 177:mode7.cpp     **** 		"	add	r3, %[VRAM], r3			\n"
 178:mode7.cpp     **** 		"	ldrb	r0, [r3, #1]			\n"
 179:mode7.cpp     **** 		"	cmp	r0, #0				\n"		
 180:mode7.cpp     **** 		"	ldrne	r1, [%[colors], r0, lsl #2]	\n"	
 181:mode7.cpp     **** 		"	strneb	%[depth], [%[d], #-1]		\n"
ARM GAS  /tmp/ccNOn6pJ.s 			page 5


 182:mode7.cpp     **** 		"	strneh	r1, [%[p], #-2]			\n"		
 183:mode7.cpp     **** 		"4:						\n"
 184:mode7.cpp     **** 		"	ldr	r0, %[daa]			\n"
 185:mode7.cpp     **** 		"	ldr	r1, %[dcc]			\n"
 186:mode7.cpp     **** 		"	add	%[xx3], %[xx3], %[dir]		\n"
 187:mode7.cpp     **** 		"	add	%[AA], %[AA], r0		\n"
 188:mode7.cpp     **** 		"	add	%[CC], %[CC], r1		\n"
 189:mode7.cpp     **** 		//"	add	%[p], %[p], #2			\n"
 190:mode7.cpp     **** 		//"	add	%[d], %[d], #1			\n"
 191:mode7.cpp     **** 		"	subs	%[x], %[x], #1			\n"
 192:mode7.cpp     **** 		"	bne	1b				\n"
 193:mode7.cpp     **** 		"3:						\n"
 194:mode7.cpp     **** 		:
 195:mode7.cpp     **** 		: [x] "r" (Right - Left),
 196:mode7.cpp     **** 		  [AA] "r" (l->MatrixA * (startx + xx) + BB),
 197:mode7.cpp     **** 		  [CC] "r" (l->MatrixC * (startx + xx) + DD),
 198:mode7.cpp     **** 		  [daa] "m" (aa),
 199:mode7.cpp     **** 		  [dcc] "m" (cc),
 200:mode7.cpp     **** 		  [VRAM] "r" (Memory.VRAM),
 201:mode7.cpp     **** 		  [colors] "r" (GFX.ScreenColors),
 202:mode7.cpp     **** 		  [p] "r" (p),
 203:mode7.cpp     **** 		  [d] "r" (d),
 204:mode7.cpp     **** 		  [depth] "r" (depth),
 205:mode7.cpp     **** 		  [dir] "r" (dir),
 206:mode7.cpp     **** 		  [yy3] "r" (yy3),
 207:mode7.cpp     **** 		  [xx3] "r" (xx3)
 208:mode7.cpp     **** 		: "r0", "r1", "r3", "cc"
 209:mode7.cpp     **** 		); 
  44              		.loc 1 209 0
  45 001c 00509DE5 		ldr	r5, [sp, #0]
  46 0020 74339FE5 		ldr	r3, .L20+4
  47              		.loc 1 87 0
  48 0024 28E09CE5 		ldr	lr, [ip, #40]
  49              		.loc 1 209 0
  50 0028 0C10A0E3 		mov	r1, #12
  51              		.loc 1 87 0
  52 002c 00709DE5 		ldr	r7, [sp, #0]
  53              		.loc 1 209 0
  54 0030 953121E0 		mla	r1, r5, r1, r3
  55              		.loc 1 86 0
  56 0034 0A3DA0E3 		mov	r3, #640
  57 0038 930525E0 		mla	r5, r3, r5, r0
  58              		.loc 1 87 0
  59 003c 053D43E2 		sub	r3, r3, #320
  60 0040 93E727E0 		mla	r7, r3, r7, lr
  61              		.loc 1 209 0
  62 0044 54339FE5 		ldr	r3, .L20+8
  63              		.loc 1 64 0
  64 0048 30609DE5 		ldr	r6, [sp, #48]
  65              		.loc 1 209 0
  66 004c 083093E5 		ldr	r3, [r3, #8]
  67              		.loc 1 97 0
  68 0050 4C439FE5 		ldr	r4, .L20+12
  69              		.loc 1 64 0
  70 0054 006096E5 		ldr	r6, [r6, #0]
  71              		.loc 1 209 0
  72 0058 00A09DE5 		ldr	sl, [sp, #0]
ARM GAS  /tmp/ccNOn6pJ.s 			page 6


  73 005c 50308DE5 		str	r3, [sp, #80]
  74 0060 40339FE5 		ldr	r3, .L20+16
  75 0064 2C909CE5 		ldr	r9, [ip, #44]
  76              		.loc 1 90 0
  77 0068 4CC09CE5 		ldr	ip, [ip, #76]
  78              		.loc 1 118 0
  79 006c B78AD4E5 		ldrb	r8, [r4, #2743]	@ zero_extendqisi2
  80              		.loc 1 97 0
  81 0070 B84AD4E5 		ldrb	r4, [r4, #2744]	@ zero_extendqisi2
  82              		.loc 1 209 0
  83 0074 0A3283E0 		add	r3, r3, sl, asl #4
  84              		.loc 1 84 0
  85 0078 000056E3 		cmp	r6, #0
  86              		.loc 1 90 0
  87 007c 34C08DE5 		str	ip, [sp, #52]
  88              		.loc 1 84 0
  89 0080 0160A003 		moveq	r6, #1
  90              		.loc 1 209 0
  91 0084 0C1081E2 		add	r1, r1, #12
  92 0088 023083E2 		add	r3, r3, #2
  93 008c FFB06AE2 		rsb	fp, sl, #255
  94 0090 00C0A0E3 		mov	ip, #0
  95 0094 01ECA0E3 		mov	lr, #256
  96              		.loc 1 86 0
  97 0098 7C508DE5 		str	r5, [sp, #124]
  98              	.LVL3:
  99              		.loc 1 87 0
 100 009c 74708DE5 		str	r7, [sp, #116]
 101              	.LVL4:
 102              		.loc 1 118 0
 103 00a0 4C808DE5 		str	r8, [sp, #76]
 104              		.loc 1 209 0
 105 00a4 54908DE5 		str	r9, [sp, #84]
 106              		.loc 1 97 0
 107 00a8 38408DE5 		str	r4, [sp, #56]
 108              		.loc 1 84 0
 109 00ac 60608DE5 		str	r6, [sp, #96]
 110              	.LVL5:
 111              	.LBE4:
 112              		.loc 1 58 0
 113 00b0 2C208DE5 		str	r2, [sp, #44]
 114              	.LBB5:
 115              		.loc 1 209 0
 116 00b4 0A008DE9 		stmib	sp, {r1, r3}	@ phole stm
 117 00b8 78B08DE5 		str	fp, [sp, #120]
 118 00bc 58C08DE5 		str	ip, [sp, #88]
 119              	.LVL6:
 120 00c0 5CE08DE5 		str	lr, [sp, #92]
 121              	.LVL7:
 122 00c4 DE0000EA 		b	.L4
 123              	.LVL8:
 124              	.L5:
 125              		.loc 1 95 0
 126              	.LVL9:
 127 00c8 09009DE9 		ldmib	sp, {r0, r3}	@ phole ldm
 128 00cc F21050E1 		ldrsh	r1, [r0, #-2]
 129              		.loc 1 92 0
ARM GAS  /tmp/ccNOn6pJ.s 			page 7


 130 00d0 B22053E1 		ldrh	r2, [r3, #-2]
 131              		.loc 1 103 0
 132 00d4 04409DE5 		ldr	r4, [sp, #4]
 133              		.loc 1 97 0
 134 00d8 38609DE5 		ldr	r6, [sp, #56]
 135 00dc 78509DE5 		ldr	r5, [sp, #120]
 136              		.loc 1 91 0
 137 00e0 B0C0D3E1 		ldrh	ip, [r3, #0]
 138              		.loc 1 95 0
 139 00e4 8119A0E1 		mov	r1, r1, asl #19
 140              		.loc 1 97 0
 141 00e8 00309DE5 		ldr	r3, [sp, #0]
 142              	.LVL10:
 143              		.loc 1 95 0
 144 00ec C119A0E1 		mov	r1, r1, asr #19
 145              	.LVL11:
 146              		.loc 1 103 0
 147 00f0 FAE054E1 		ldrsh	lr, [r4, #-10]
 148              		.loc 1 100 0
 149 00f4 8229A0E1 		mov	r2, r2, asl #19
 150              		.loc 1 94 0
 151 00f8 F40050E1 		ldrsh	r0, [r0, #-4]
 152              		.loc 1 104 0
 153 00fc F64054E1 		ldrsh	r4, [r4, #-6]
 154              		.loc 1 97 0
 155 0100 000056E3 		cmp	r6, #0
 156              		.loc 1 100 0
 157 0104 C22961E0 		rsb	r2, r1, r2, asr #19
 158              		.loc 1 97 0
 159 0108 0530A011 		movne	r3, r5
 160              		.loc 1 100 0
 161 010c 023083E0 		add	r3, r3, r2
 162              	.LVL12:
 163              		.loc 1 106 0
 164 0110 012083E0 		add	r2, r3, r1
 165              		.loc 1 91 0
 166 0114 8CC9A0E1 		mov	ip, ip, asl #19
 167              		.loc 1 94 0
 168 0118 8009A0E1 		mov	r0, r0, asl #19
 169              		.loc 1 103 0
 170 011c 930E0EE0 		mul	lr, r3, lr
 171              		.loc 1 104 0
 172 0120 930404E0 		mul	r4, r3, r4
 173              		.loc 1 106 0
 174 0124 30809DE5 		ldr	r8, [sp, #48]
 175              		.loc 1 94 0
 176 0128 C009A0E1 		mov	r0, r0, asr #19
 177              	.LVL13:
 178              		.loc 1 91 0
 179 012c CCC9A0E1 		mov	ip, ip, asr #19
 180              		.loc 1 106 0
 181 0130 072002E2 		and	r2, r2, #7
 182              		.loc 1 103 0
 183 0134 0074A0E1 		mov	r7, r0, asl #8
 184              		.loc 1 106 0
 185 0138 0222A0E1 		mov	r2, r2, asl #4
 186              		.loc 1 101 0
ARM GAS  /tmp/ccNOn6pJ.s 			page 8


 187 013c 0C0060E0 		rsb	r0, r0, ip
 188              	.LVL14:
 189              		.loc 1 104 0
 190 0140 0114A0E1 		mov	r1, r1, asl #8
 191              	.LVL15:
 192              		.loc 1 106 0
 193 0144 0090A0E3 		mov	r9, #0
 194              		.loc 1 103 0
 195 0148 3CE08DE5 		str	lr, [sp, #60]
 196              		.loc 1 104 0
 197 014c 44408DE5 		str	r4, [sp, #68]
 198              		.loc 1 91 0
 199 0150 64C08DE5 		str	ip, [sp, #100]
 200              		.loc 1 103 0
 201 0154 40708DE5 		str	r7, [sp, #64]
 202              		.loc 1 106 0
 203 0158 6C208DE5 		str	r2, [sp, #108]
 204              		.loc 1 101 0
 205 015c 68008DE5 		str	r0, [sp, #104]
 206              		.loc 1 104 0
 207 0160 48108DE5 		str	r1, [sp, #72]
 208              		.loc 1 106 0
 209 0164 18808DE5 		str	r8, [sp, #24]
 210 0168 70908DE5 		str	r9, [sp, #112]
 211 016c C80000EA 		b	.L9
 212              	.LVL16:
 213              	.L10:
 214              		.loc 1 110 0
 215 0170 30A09DE5 		ldr	sl, [sp, #48]
 216 0174 00309AE5 		ldr	r3, [sl, #0]
 217 0178 000053E3 		cmp	r3, #0
 218 017c 6600000A 		beq	.L11
 219              		.loc 1 111 0
 220 0180 18B09DE5 		ldr	fp, [sp, #24]
 221              		.loc 1 112 0
 222 0184 18C09DE5 		ldr	ip, [sp, #24]
 223              		.loc 1 111 0
 224 0188 18B09BE5 		ldr	fp, [fp, #24]
 225              		.loc 1 112 0
 226 018c A8C09CE5 		ldr	ip, [ip, #168]
 227              		.loc 1 111 0
 228 0190 58B08DE5 		str	fp, [sp, #88]
 229              		.loc 1 113 0
 230 0194 0B005CE1 		cmp	ip, fp
 231              		.loc 1 112 0
 232 0198 5CC08DE5 		str	ip, [sp, #92]
 233              		.loc 1 113 0
 234 019c C200009A 		bls	.L13
 235              	.L11:
 236 01a0 04209DE5 		ldr	r2, [sp, #4]
 237              		.loc 1 118 0
 238 01a4 4CE09DE5 		ldr	lr, [sp, #76]
 239 01a8 FC3052E1 		ldrsh	r3, [r2, #-12]
 240              		.loc 1 119 0
 241 01ac 5C009DE5 		ldr	r0, [sp, #92]
 242 01b0 F82052E1 		ldrsh	r2, [r2, #-8]
 243              		.loc 1 209 0
ARM GAS  /tmp/ccNOn6pJ.s 			page 9


 244 01b4 04409DE5 		ldr	r4, [sp, #4]
 245              		.loc 1 118 0
 246 01b8 00005EE3 		cmp	lr, #0
 247              		.loc 1 119 0
 248 01bc 016040E2 		sub	r6, r0, #1
 249              	.LVL17:
 250              		.loc 1 121 0
 251 01c0 00206212 		rsbne	r2, r2, #0
 252              		.loc 1 124 0
 253 01c4 58609D05 		ldreq	r6, [sp, #88]
 254              		.loc 1 209 0
 255 01c8 68509DE5 		ldr	r5, [sp, #104]
 256              		.loc 1 121 0
 257 01cc 80208D15 		strne	r2, [sp, #128]
 258              		.loc 1 126 0
 259 01d0 80208D05 		streq	r2, [sp, #128]
 260              		.loc 1 209 0
 261 01d4 48C09DE5 		ldr	ip, [sp, #72]
 262 01d8 F82054E1 		ldrsh	r2, [r4, #-8]
 263              		.loc 1 120 0
 264 01dc 00306312 		rsbne	r3, r3, #0
 265              		.loc 1 125 0
 266 01e0 84308D05 		streq	r3, [sp, #132]
 267              		.loc 1 121 0
 268 01e4 0010E0E3 		mvn	r1, #0
 269              		.loc 1 126 0
 270 01e8 0130A003 		moveq	r3, #1
 271              		.loc 1 121 0
 272 01ec 14108DE5 		str	r1, [sp, #20]
 273              		.loc 1 120 0
 274 01f0 84308D15 		strne	r3, [sp, #132]
 275              		.loc 1 126 0
 276 01f4 14308D05 		streq	r3, [sp, #20]
 277              		.loc 1 209 0
 278 01f8 053086E0 		add	r3, r6, r5
 279 01fc FC1054E1 		ldrsh	r1, [r4, #-12]
 280 0200 93C22CE0 		mla	ip, r3, r2, ip
 281 0204 40209DE5 		ldr	r2, [sp, #64]
 282 0208 58909DE5 		ldr	r9, [sp, #88]
 283 020c 5C809DE5 		ldr	r8, [sp, #92]
 284 0210 7CA09DE5 		ldr	sl, [sp, #124]
 285 0214 74B09DE5 		ldr	fp, [sp, #116]
 286 0218 64709DE5 		ldr	r7, [sp, #100]
 287 021c 44E09DE5 		ldr	lr, [sp, #68]
 288 0220 932122E0 		mla	r2, r3, r1, r2
 289 0224 3C009DE5 		ldr	r0, [sp, #60]
 290 0228 088069E0 		rsb	r8, r9, r8
 291 022c 89A08AE0 		add	sl, sl, r9, asl #1
 292 0230 09B08BE0 		add	fp, fp, r9
 293 0234 076086E0 		add	r6, r6, r7
 294              	.LVL18:
 295 0238 0CC08EE0 		add	ip, lr, ip
 296 023c 10808DE5 		str	r8, [sp, #16]
 297 0240 20A08DE5 		str	sl, [sp, #32]
 298 0244 1CB08DE5 		str	fp, [sp, #28]
 299 0248 022080E0 		add	r2, r0, r2
 300 024c 50409DE5 		ldr	r4, [sp, #80]
ARM GAS  /tmp/ccNOn6pJ.s 			page 10


 301 0250 54509DE5 		ldr	r5, [sp, #84]
 302 0254 2C709DE5 		ldr	r7, [sp, #44]
 303 0258 14909DE5 		ldr	r9, [sp, #20]
 304 025c 6CE09DE5 		ldr	lr, [sp, #108]
 305              	#APP
 306              		1:						
 307 0260 0100DBE4 		ldrb	r0, [fp], #1			
 308 0264 02A08AE2 		add	sl, sl, #2			
 309 0268 000057E1 		cmp	r7, r0			
 310 026c BB00009A 		bls	4f				
 311 0270 4239A0E1 		mov	r3, r2, asr #18		
 312 0274 4C3993E1 		orrs	r3, r3, ip, asr #18		
 313 0278 B300001A 		bne	2f				
 314              							
 315 027c CC35A0E1 		mov	r3, ip, asr #11		
 316 0280 C215A0E1 		mov	r1, r2, asr #11		
 317 0284 833381E0 		add	r3, r1, r3, lsl #7		
 318 0288 8330D4E7 		ldrb	r3, [r4, r3, lsl #1]	
 319              							
 320 028c 071C0CE2 		and	r1, ip, #(7 << 8)		
 321 0290 833384E0 		add	r3, r4, r3, lsl #7		
 322 0294 070C02E2 		and	r0, r2, #(7 << 8)		
 323 0298 413283E0 		add	r3, r3, r1, asr #4 		
 324 029c C03383E0 		add	r3, r3, r0, asr #7		
 325              							
 326 02a0 84109DE5 		ldr	r1, [sp, #132]			
 327 02a4 0100D3E5 		ldrb	r0, [r3, #1]			
 328 02a8 012082E0 		add	r2, r2, r1		
 329 02ac 000050E3 		cmp	r0, #0				
 330 02b0 00119517 		ldrne	r1, [r5, r0, lsl #2]	
 331 02b4 096086E0 		add	r6, r6, r9		
 332 02b8 01704B15 		strneb	r7, [fp, #-1]		
 333 02bc 80009DE5 		ldr	r0, [sp, #128]			
 334 02c0 B2104A11 		strneh	r1, [sl, #-2]			
 335              							
 336 02c4 00C08CE0 		add	ip, ip, r0		
 337 02c8 018058E2 		subs	r8, r8, #1			
 338 02cc 9600001A 		bne	1b				
 339 02d0 C20000EA 		b	3f				
 340              	2:						
 341 02d4 070006E2 		and	r0, r6, #7			
 342 02d8 80308EE0 		add	r3, lr, r0, lsl #1 		
 343              							
 344 02dc 033084E0 		add	r3, r4, r3			
 345 02e0 0100D3E5 		ldrb	r0, [r3, #1]			
 346 02e4 000050E3 		cmp	r0, #0				
 347 02e8 00119517 		ldrne	r1, [r5, r0, lsl #2]	
 348 02ec 01704B15 		strneb	r7, [fp, #-1]		
 349 02f0 B2104A11 		strneh	r1, [sl, #-2]			
 350              	4:						
 351 02f4 84009DE5 		ldr	r0, [sp, #132]			
 352 02f8 80109DE5 		ldr	r1, [sp, #128]			
 353 02fc 096086E0 		add	r6, r6, r9		
 354 0300 002082E0 		add	r2, r2, r0		
 355 0304 01C08CE0 		add	ip, ip, r1		
 356 0308 018058E2 		subs	r8, r8, #1			
 357 030c 9600001A 		bne	1b				
ARM GAS  /tmp/ccNOn6pJ.s 			page 11


 358              	3:						
 359              	
 360              	.L13:
 361              		.loc 1 108 0
 362 0310 70009DE5 		ldr	r0, [sp, #112]
 363 0314 18109DE5 		ldr	r1, [sp, #24]
 364 0318 010080E2 		add	r0, r0, #1
 365 031c 181081E2 		add	r1, r1, #24
 366 0320 70008DE5 		str	r0, [sp, #112]
 367 0324 18108DE5 		str	r1, [sp, #24]
 368              	.LVL19:
 369              	.L9:
 370 0328 70209DE5 		ldr	r2, [sp, #112]
 371 032c 60309DE5 		ldr	r3, [sp, #96]
 372              	.LVL20:
 373 0330 030052E1 		cmp	r2, r3
 374 0334 5A00001A 		bne	.L10
 375              		.loc 1 90 0
 376 0338 00409DE5 		ldr	r4, [sp, #0]
 377 033c 7C509DE5 		ldr	r5, [sp, #124]
 378 0340 74609DE5 		ldr	r6, [sp, #116]
 379 0344 04709DE5 		ldr	r7, [sp, #4]
 380 0348 78809DE5 		ldr	r8, [sp, #120]
 381 034c 08909DE5 		ldr	r9, [sp, #8]
 382 0350 014084E2 		add	r4, r4, #1
 383 0354 0A5D85E2 		add	r5, r5, #640
 384 0358 056D86E2 		add	r6, r6, #320
 385 035c 0C7087E2 		add	r7, r7, #12
 386 0360 018048E2 		sub	r8, r8, #1
 387 0364 109089E2 		add	r9, r9, #16
 388 0368 00408DE5 		str	r4, [sp, #0]
 389 036c 7C508DE5 		str	r5, [sp, #124]
 390 0370 74608DE5 		str	r6, [sp, #116]
 391 0374 04708DE5 		str	r7, [sp, #4]
 392 0378 78808DE5 		str	r8, [sp, #120]
 393 037c 08908DE5 		str	r9, [sp, #8]
 394              	.LVL21:
 395              	.L4:
 396 0380 00A09DE5 		ldr	sl, [sp, #0]
 397 0384 34B09DE5 		ldr	fp, [sp, #52]
 398 0388 0B005AE1 		cmp	sl, fp
 399 038c 3000009A 		bls	.L5
 400              	.LBE5:
 210:mode7.cpp     **** 	} 
 211:mode7.cpp     ****     }
 212:mode7.cpp     **** 
 213:mode7.cpp     **** }
 401              		.loc 1 213 0
 402 0390 88D08DE2 		add	sp, sp, #136
 403 0394 F08FBDE8 		ldmfd	sp!, {r4, r5, r6, r7, r8, r9, sl, fp, pc}
 404              	.L21:
 405              		.align	2
 406              	.L20:
 407 0398 00000000 		.word	GFX
 408 039c 00000000 		.word	LineMatrixData
 409 03a0 00000000 		.word	Memory
 410 03a4 00000000 		.word	PPU
ARM GAS  /tmp/ccNOn6pJ.s 			page 12


 411 03a8 00000000 		.word	LineData
 412              	.LFE29:
 413              		.size	_Z25DrawBGMode7Background16R3Phii, .-_Z25DrawBGMode7Background16R3Phii
 414              		.global	__gxx_personality_sj0
 415              		.align	2
 416 03ac 0000A0E1 		.p2align 5,,31
 416      0000A0E1 
 416      0000A0E1 
 416      0000A0E1 
 416      0000A0E1 
 417              		.global	_Z27DrawBGMode7Background16R1R2Phii
 418              		.type	_Z27DrawBGMode7Background16R1R2Phii, %function
 419              	_Z27DrawBGMode7Background16R1R2Phii:
 420              	.LFB30:
 214:mode7.cpp     **** 
 215:mode7.cpp     **** void DrawBGMode7Background16R1R2 (uint8 *Screen, int bg, int depth)
 421              		.loc 1 215 0
 422              		@ args = 0, pretend = 0, frame = 124
 423              		@ frame_needed = 0, uses_anonymous_args = 0
 424              	.LVL22:
 425              	.LBB6:
 216:mode7.cpp     **** {
 217:mode7.cpp     ****     int aa, cc;  
 218:mode7.cpp     ****     int startx; 
 219:mode7.cpp     ****     uint32 Left = 0; 
 220:mode7.cpp     ****     uint32 Right = 256; 
 221:mode7.cpp     ****     uint32 ClipCount = GFX.pCurrentClip->Count [0]; 
 222:mode7.cpp     ****     
 223:mode7.cpp     ****     int32 HOffset; 
 224:mode7.cpp     ****     int32 VOffset; 
 225:mode7.cpp     ****     int32 CentreX; 
 226:mode7.cpp     ****     int32 CentreY;
 227:mode7.cpp     ****     uint8 *d;
 228:mode7.cpp     ****     uint16 *p;
 229:mode7.cpp     ****     int yy; 
 230:mode7.cpp     ****     int xx; 
 231:mode7.cpp     ****     int BB; 
 232:mode7.cpp     ****     int DD; 
 233:mode7.cpp     ****     uint32 Line;
 234:mode7.cpp     ****     uint32 clip; 
 235:mode7.cpp     ****     uint8 b; 
 236:mode7.cpp     ****     uint32 AndByY;
 237:mode7.cpp     ****     uint32 AndByX = 0xffffffff; 
 238:mode7.cpp     ****     if (Settings.Dezaemon && PPU.Mode7Repeat == 2) AndByX = 0x7ff;
 426              		.loc 1 238 0
 427 03c0 78339FE5 		ldr	r3, .L44
 428              	.LBE6:
 429              		.loc 1 215 0
 430 03c4 F04F2DE9 		stmfd	sp!, {r4, r5, r6, r7, r8, r9, sl, fp, lr}
 431              	.LCFI2:
 432              	.LBB7:
 433              		.loc 1 238 0
 434 03c8 2311D3E5 		ldrb	r1, [r3, #291]	@ zero_extendqisi2
 435              	.LVL23:
 436              		.loc 1 221 0
 437 03cc 70339FE5 		ldr	r3, .L44+4
 438              	.LBE7:
ARM GAS  /tmp/ccNOn6pJ.s 			page 13


 439              		.loc 1 215 0
 440 03d0 0040A0E1 		mov	r4, r0
 441              	.LBB8:
 442              		.loc 1 221 0
 443 03d4 503093E5 		ldr	r3, [r3, #80]
 444              	.LBE8:
 445              		.loc 1 215 0
 446 03d8 7CD04DE2 		sub	sp, sp, #124
 447              	.LCFI3:
 448              	.LBB9:
 449              		.loc 1 221 0
 450 03dc 000093E5 		ldr	r0, [r3, #0]
 451              	.LVL24:
 452 03e0 2C308DE5 		str	r3, [sp, #44]
 453              		.loc 1 238 0
 454 03e4 000051E3 		cmp	r1, #0
 455              		.loc 1 237 0
 456 03e8 0030E0E3 		mvn	r3, #0
 457              	.LBE9:
 458              		.loc 1 215 0
 459 03ec 28208DE5 		str	r2, [sp, #40]
 460              	.LBB10:
 461              		.loc 1 221 0
 462 03f0 5C008DE5 		str	r0, [sp, #92]
 463              	.LVL25:
 464              		.loc 1 237 0
 465 03f4 74308DE5 		str	r3, [sp, #116]
 466              	.LVL26:
 467              		.loc 1 238 0
 468 03f8 0201000A 		beq	.L23
 469              	.LVL27:
 470 03fc 44339FE5 		ldr	r3, .L44+8
 471 0400 B93AD3E5 		ldrb	r3, [r3, #2745]	@ zero_extendqisi2
 472 0404 020053E3 		cmp	r3, #2
 473 0408 3C339F05 		ldreq	r3, .L44+12
 474 040c 74308D05 		streq	r3, [sp, #116]
 475              	.L23:
 239:mode7.cpp     ****     AndByY = AndByX << 4;
 240:mode7.cpp     ****     AndByX = AndByX << 1;
 241:mode7.cpp     ****     uint8 *Depth;
 242:mode7.cpp     **** 
 243:mode7.cpp     ****     if (!ClipCount) ClipCount = 1; 
 244:mode7.cpp     **** 
 245:mode7.cpp     ****     Screen += GFX.StartY * GFX_PITCH; 
 476              		.loc 1 245 0
 477 0410 2C139FE5 		ldr	r1, .L44+4
 246:mode7.cpp     ****     Depth = GFX.DB + GFX.StartY * GFX_PPL;
 247:mode7.cpp     **** 
 248:mode7.cpp     ****     struct SLineMatrixData *l = &LineMatrixData [GFX.StartY]; 
 249:mode7.cpp     **** 
 250:mode7.cpp     ****     for (Line = GFX.StartY; Line <= GFX.EndY; Line++, Screen += GFX_PITCH, Depth += GFX_PPL, l++) {
 251:mode7.cpp     **** 	HOffset = ((int32) LineData[Line].BG[0].HOffset << M7) >> M7; 
 252:mode7.cpp     **** 	VOffset = ((int32) LineData[Line].BG[0].VOffset << M7) >> M7; 
 253:mode7.cpp     **** 
 254:mode7.cpp     **** 	CentreX = ((int32) l->CentreX << M7) >> M7; 
 255:mode7.cpp     **** 	CentreY = ((int32) l->CentreY << M7) >> M7; 
 256:mode7.cpp     **** 
ARM GAS  /tmp/ccNOn6pJ.s 			page 14


 257:mode7.cpp     **** 	if (PPU.Mode7VFlip) yy = 255 - (int) Line; 
 258:mode7.cpp     **** 	else yy = Line; 
 259:mode7.cpp     **** 
 260:mode7.cpp     **** 	yy += VOffset - CentreY;
 261:mode7.cpp     **** 	xx = HOffset - CentreX;
 262:mode7.cpp     **** 
 263:mode7.cpp     **** 	BB = l->MatrixB * yy + (CentreX << 8); 
 264:mode7.cpp     **** 	DD = l->MatrixD * yy + (CentreY << 8); 
 265:mode7.cpp     **** 	
 266:mode7.cpp     **** 	for (clip = 0; clip < ClipCount; clip++) { 
 267:mode7.cpp     **** 	    if (GFX.pCurrentClip->Count [0]){ 
 268:mode7.cpp     **** 			Left = GFX.pCurrentClip->Left [clip][0]; 
 269:mode7.cpp     **** 			Right = GFX.pCurrentClip->Right [clip][0]; 
 270:mode7.cpp     **** 			if (Right <= Left) continue; 
 271:mode7.cpp     **** 	    	} 
 272:mode7.cpp     **** 	    p = (uint16 *) Screen + Left; 
 273:mode7.cpp     **** 	    d = Depth + Left;
 274:mode7.cpp     **** 
 275:mode7.cpp     **** 	    if (PPU.Mode7HFlip) { 
 276:mode7.cpp     **** 			startx = Right - 1; 
 277:mode7.cpp     **** 			aa = -l->MatrixA; 
 278:mode7.cpp     **** 			cc = -l->MatrixC;
 279:mode7.cpp     **** 	    } else { 
 280:mode7.cpp     **** 			startx = Left; 
 281:mode7.cpp     **** 			aa = l->MatrixA; 
 282:mode7.cpp     **** 			cc = l->MatrixC;
 283:mode7.cpp     **** 	    } 
 284:mode7.cpp     **** 		asm volatile (
 285:mode7.cpp     **** 		"1:						\n"
 286:mode7.cpp     **** 		"	ldrb	r0, [%[d]], #1			\n"
 287:mode7.cpp     **** 		"	add	%[p], %[p], #2			\n"
 288:mode7.cpp     **** 		"	cmp	%[depth], r0			\n"
 289:mode7.cpp     **** 		"	bls	2f				\n"
 290:mode7.cpp     **** 		"	mov	r3, %[AA], asr #18		\n"
 291:mode7.cpp     **** 		"	orrs	r3, r3, %[CC], asr #18		\n"			
 292:mode7.cpp     **** 		"	bne	2f				\n" 
 293:mode7.cpp     **** 		"						\n"
 294:mode7.cpp     **** 		"	ldr	r1, %[AndByY]			\n"
 295:mode7.cpp     **** 		"	ldr	r0, %[AndByX]			\n"
 296:mode7.cpp     **** 		"	and	r1, r1, %[CC], asr #4		\n"
 297:mode7.cpp     **** 		"	and	r0, r0, %[AA], asr #7		\n"
 298:mode7.cpp     **** 		"						\n"
 299:mode7.cpp     **** 		"	and	r3, r1, #0x7f			\n" 
 300:mode7.cpp     **** 		"	sub	r3, r1, r3			\n" 
 301:mode7.cpp     **** 		"	add	r3, r3, r0, asr #4		\n"
 302:mode7.cpp     **** 		//"	add	r3, r3, r3			\n"
 303:mode7.cpp     **** 		"	ldrb	r3, [%[VRAM], r3, lsl #1]	\n"
 304:mode7.cpp     **** 		"	and	r1, r1, #0x70			\n"
 305:mode7.cpp     **** 		"						\n"
 306:mode7.cpp     **** 		"	add	r3, %[VRAM], r3, lsl #7		\n"
 307:mode7.cpp     **** 		"						\n"
 308:mode7.cpp     **** 		"	and	r0, r0, #14			\n"
 309:mode7.cpp     **** 		"	add	r3, r3, r1			\n"
 310:mode7.cpp     **** 		"	add	r3, r3, r0			\n"
 311:mode7.cpp     **** 		"						\n"
 312:mode7.cpp     **** 		"	ldrb	r0, [r3, #1]			\n"
 313:mode7.cpp     **** 		"	add	%[AA], %[AA], %[daa]		\n"
ARM GAS  /tmp/ccNOn6pJ.s 			page 15


 314:mode7.cpp     **** 		"	cmp	r0, #0				\n"		
 315:mode7.cpp     **** 		"	ldrne	r1, [%[colors], r0, lsl #2]	\n"	
 316:mode7.cpp     **** 		"	strneb	%[depth], [%[d], #-1]		\n"
 317:mode7.cpp     **** 		"	add	%[CC], %[CC], %[dcc]		\n"
 318:mode7.cpp     **** 		"	strneh	r1, [%[p], #-2]			\n"
 319:mode7.cpp     **** 		//"	add	%[p], %[p], #2			\n"
 320:mode7.cpp     **** 		//"	add	%[d], %[d], #1			\n"		
 321:mode7.cpp     **** 		"	subs	%[x], %[x], #1			\n"
 322:mode7.cpp     **** 		"	bne	1b				\n"
 323:mode7.cpp     **** 		"	b	3f				\n"		
 324:mode7.cpp     **** 		"2:						\n"
 325:mode7.cpp     **** 		"	add	%[AA], %[AA], %[daa]		\n"
 326:mode7.cpp     **** 		"	add	%[CC], %[CC], %[dcc]		\n"
 327:mode7.cpp     **** 		//"	add	%[p], %[p], #2			\n"
 328:mode7.cpp     **** 		//"	add	%[d], %[d], #1			\n"		
 329:mode7.cpp     **** 		"	subs	%[x], %[x], #1			\n"
 330:mode7.cpp     **** 		"	bne	1b				\n"
 331:mode7.cpp     **** 		"3:						\n"
 332:mode7.cpp     **** 		:
 333:mode7.cpp     **** 		: [x] "r" (Right - Left),
 334:mode7.cpp     **** 		  [AA] "r" (l->MatrixA * (startx + xx) + BB),
 335:mode7.cpp     **** 		  [CC] "r" (l->MatrixC * (startx + xx) + DD),
 336:mode7.cpp     **** 		  [daa] "r" (aa),
 337:mode7.cpp     **** 		  [dcc] "r" (cc),
 338:mode7.cpp     **** 		  [VRAM] "r" (Memory.VRAM),
 339:mode7.cpp     **** 		  [colors] "r" (GFX.ScreenColors),
 340:mode7.cpp     **** 		  [p] "r" (p),
 341:mode7.cpp     **** 		  [d] "r" (d),
 342:mode7.cpp     **** 		  [depth] "r" (depth),
 343:mode7.cpp     **** 		  [AndByX] "m" (AndByX),
 344:mode7.cpp     **** 		  [AndByY] "m" (AndByY)
 345:mode7.cpp     **** 		: "r0", "r1", "r3", "cc"
 346:mode7.cpp     **** 		); 
 478              		.loc 1 346 0
 479 0414 34339FE5 		ldr	r3, .L44+16
 480              		.loc 1 245 0
 481 0418 482091E5 		ldr	r2, [r1, #72]
 482              		.loc 1 246 0
 483 041c 280091E5 		ldr	r0, [r1, #40]
 484              		.loc 1 245 0
 485 0420 00208DE5 		str	r2, [sp, #0]
 486              	.LVL28:
 487              		.loc 1 346 0
 488 0424 00E09DE5 		ldr	lr, [sp, #0]
 489              		.loc 1 245 0
 490 0428 00509DE5 		ldr	r5, [sp, #0]
 491              		.loc 1 346 0
 492 042c 0C20A0E3 		mov	r2, #12
 493              		.loc 1 246 0
 494 0430 00609DE5 		ldr	r6, [sp, #0]
 495              		.loc 1 346 0
 496 0434 923E2EE0 		mla	lr, r2, lr, r3
 497              		.loc 1 245 0
 498 0438 0A3DA0E3 		mov	r3, #640
 499 043c 934525E0 		mla	r5, r3, r5, r4
 500              		.loc 1 246 0
 501 0440 053D43E2 		sub	r3, r3, #320
ARM GAS  /tmp/ccNOn6pJ.s 			page 16


 502 0444 930626E0 		mla	r6, r3, r6, r0
 503              		.loc 1 346 0
 504 0448 04339FE5 		ldr	r3, .L44+20
 505              		.loc 1 257 0
 506 044c F4C29FE5 		ldr	ip, .L44+8
 507              		.loc 1 346 0
 508 0450 083093E5 		ldr	r3, [r3, #8]
 509 0454 00A09DE5 		ldr	sl, [sp, #0]
 510 0458 4C308DE5 		str	r3, [sp, #76]
 511 045c F4329FE5 		ldr	r3, .L44+24
 512              		.loc 1 243 0
 513 0460 5CB09DE5 		ldr	fp, [sp, #92]
 514              		.loc 1 239 0
 515 0464 74209DE5 		ldr	r2, [sp, #116]
 516              		.loc 1 346 0
 517 0468 2C9091E5 		ldr	r9, [r1, #44]
 518              		.loc 1 250 0
 519 046c 4C1091E5 		ldr	r1, [r1, #76]
 520              		.loc 1 275 0
 521 0470 B77ADCE5 		ldrb	r7, [ip, #2743]	@ zero_extendqisi2
 522              		.loc 1 346 0
 523 0474 0A3283E0 		add	r3, r3, sl, asl #4
 524              		.loc 1 257 0
 525 0478 B8CADCE5 		ldrb	ip, [ip, #2744]	@ zero_extendqisi2
 526              		.loc 1 346 0
 527 047c 023083E2 		add	r3, r3, #2
 528              		.loc 1 243 0
 529 0480 00005BE3 		cmp	fp, #0
 530              		.loc 1 250 0
 531 0484 30108DE5 		str	r1, [sp, #48]
 532              		.loc 1 243 0
 533 0488 01B0A003 		moveq	fp, #1
 534              		.loc 1 240 0
 535 048c 8210A0E1 		mov	r1, r2, asl #1
 536              		.loc 1 346 0
 537 0490 0C808EE2 		add	r8, lr, #12
 538 0494 0C308DE5 		str	r3, [sp, #12]
 539              		.loc 1 239 0
 540 0498 0222A0E1 		mov	r2, r2, asl #4
 541              		.loc 1 346 0
 542 049c FFE06AE2 		rsb	lr, sl, #255
 543 04a0 0000A0E3 		mov	r0, #0
 544 04a4 013CA0E3 		mov	r3, #256
 545              		.loc 1 245 0
 546 04a8 70508DE5 		str	r5, [sp, #112]
 547              	.LVL29:
 548              		.loc 1 246 0
 549 04ac 68608DE5 		str	r6, [sp, #104]
 550              	.LVL30:
 551              		.loc 1 275 0
 552 04b0 48708DE5 		str	r7, [sp, #72]
 553              		.loc 1 346 0
 554 04b4 50908DE5 		str	r9, [sp, #80]
 555              		.loc 1 257 0
 556 04b8 34C08DE5 		str	ip, [sp, #52]
 557              		.loc 1 243 0
 558 04bc 5CB08DE5 		str	fp, [sp, #92]
ARM GAS  /tmp/ccNOn6pJ.s 			page 17


 559              		.loc 1 346 0
 560 04c0 6CE08DE5 		str	lr, [sp, #108]
 561 04c4 54008DE5 		str	r0, [sp, #84]
 562              	.LVL31:
 563 04c8 58308DE5 		str	r3, [sp, #88]
 564              	.LVL32:
 565              		.loc 1 239 0
 566 04cc 78208DE5 		str	r2, [sp, #120]
 567              	.LVL33:
 568              		.loc 1 240 0
 569 04d0 74108DE5 		str	r1, [sp, #116]
 570 04d4 C80100EA 		b	.L28
 571              	.LVL34:
 572              	.L29:
 573              		.loc 1 252 0
 574 04d8 0C409DE5 		ldr	r4, [sp, #12]
 575              	.LVL35:
 576              		.loc 1 255 0
 577 04dc F2C058E1 		ldrsh	ip, [r8, #-2]
 578              		.loc 1 252 0
 579 04e0 B22054E1 		ldrh	r2, [r4, #-2]
 580              		.loc 1 257 0
 581 04e4 34609DE5 		ldr	r6, [sp, #52]
 582 04e8 6C509DE5 		ldr	r5, [sp, #108]
 583              		.loc 1 251 0
 584 04ec 0C709DE5 		ldr	r7, [sp, #12]
 585              		.loc 1 257 0
 586 04f0 00309DE5 		ldr	r3, [sp, #0]
 587              	.LVL36:
 588              		.loc 1 255 0
 589 04f4 8CC9A0E1 		mov	ip, ip, asl #19
 590 04f8 CCC9A0E1 		mov	ip, ip, asr #19
 591              	.LVL37:
 592              		.loc 1 260 0
 593 04fc 8229A0E1 		mov	r2, r2, asl #19
 594              		.loc 1 254 0
 595 0500 F40058E1 		ldrsh	r0, [r8, #-4]
 596              		.loc 1 263 0
 597 0504 FA4058E1 		ldrsh	r4, [r8, #-10]
 598              		.loc 1 264 0
 599 0508 F6E058E1 		ldrsh	lr, [r8, #-6]
 600              		.loc 1 257 0
 601 050c 000056E3 		cmp	r6, #0
 602              		.loc 1 260 0
 603 0510 C2296CE0 		rsb	r2, ip, r2, asr #19
 604              		.loc 1 257 0
 605 0514 0530A011 		movne	r3, r5
 606              		.loc 1 251 0
 607 0518 B010D7E1 		ldrh	r1, [r7, #0]
 608              		.loc 1 260 0
 609 051c 023083E0 		add	r3, r3, r2
 610              	.LVL38:
 611              		.loc 1 264 0
 612 0520 930E0EE0 		mul	lr, r3, lr
 613              		.loc 1 254 0
 614 0524 8009A0E1 		mov	r0, r0, asl #19
 615              		.loc 1 263 0
ARM GAS  /tmp/ccNOn6pJ.s 			page 18


 616 0528 930404E0 		mul	r4, r3, r4
 617              		.loc 1 264 0
 618 052c 2C909DE5 		ldr	r9, [sp, #44]
 619              		.loc 1 254 0
 620 0530 C009A0E1 		mov	r0, r0, asr #19
 621              	.LVL39:
 622              		.loc 1 261 0
 623 0534 8119A0E1 		mov	r1, r1, asl #19
 624 0538 C11960E0 		rsb	r1, r0, r1, asr #19
 625              		.loc 1 264 0
 626 053c 0CC4A0E1 		mov	ip, ip, asl #8
 627              	.LVL40:
 628              		.loc 1 263 0
 629 0540 0004A0E1 		mov	r0, r0, asl #8
 630              	.LVL41:
 631              		.loc 1 264 0
 632 0544 00A0A0E3 		mov	sl, #0
 633 0548 40E08DE5 		str	lr, [sp, #64]
 634              		.loc 1 263 0
 635 054c 38408DE5 		str	r4, [sp, #56]
 636              		.loc 1 261 0
 637 0550 60108DE5 		str	r1, [sp, #96]
 638              		.loc 1 263 0
 639 0554 3C008DE5 		str	r0, [sp, #60]
 640              		.loc 1 264 0
 641 0558 44C08DE5 		str	ip, [sp, #68]
 642 055c 08908DE5 		str	r9, [sp, #8]
 643 0560 64A08DE5 		str	sl, [sp, #100]
 644 0564 B40100EA 		b	.L33
 645              	.L34:
 646              		.loc 1 267 0
 647 0568 2CB09DE5 		ldr	fp, [sp, #44]
 648 056c 00309BE5 		ldr	r3, [fp, #0]
 649              	.LVL42:
 650 0570 000053E3 		cmp	r3, #0
 651 0574 6401000A 		beq	.L35
 652              		.loc 1 268 0
 653 0578 08C09DE5 		ldr	ip, [sp, #8]
 654              		.loc 1 269 0
 655 057c 08E09DE5 		ldr	lr, [sp, #8]
 656              		.loc 1 268 0
 657 0580 18C09CE5 		ldr	ip, [ip, #24]
 658              		.loc 1 269 0
 659 0584 A8E09EE5 		ldr	lr, [lr, #168]
 660              		.loc 1 268 0
 661 0588 54C08DE5 		str	ip, [sp, #84]
 662              		.loc 1 270 0
 663 058c 0C005EE1 		cmp	lr, ip
 664              		.loc 1 269 0
 665 0590 58E08DE5 		str	lr, [sp, #88]
 666              		.loc 1 270 0
 667 0594 AE01009A 		bls	.L37
 668              	.L35:
 669              		.loc 1 275 0
 670 0598 48009DE5 		ldr	r0, [sp, #72]
 671 059c FC2058E1 		ldrsh	r2, [r8, #-12]
 672              		.loc 1 276 0
ARM GAS  /tmp/ccNOn6pJ.s 			page 19


 673 05a0 58109DE5 		ldr	r1, [sp, #88]
 674              		.loc 1 275 0
 675 05a4 000050E3 		cmp	r0, #0
 676              		.loc 1 276 0
 677 05a8 013041E2 		sub	r3, r1, #1
 678              	.LVL43:
 679              		.loc 1 277 0
 680 05ac 00206212 		rsbne	r2, r2, #0
 681 05b0 F81058E1 		ldrsh	r1, [r8, #-8]
 682              		.loc 1 346 0
 683 05b4 60409DE5 		ldr	r4, [sp, #96]
 684              		.loc 1 280 0
 685 05b8 54309D05 		ldreq	r3, [sp, #84]
 686              		.loc 1 277 0
 687 05bc 04208D15 		strne	r2, [sp, #4]
 688              		.loc 1 281 0
 689 05c0 04208D05 		streq	r2, [sp, #4]
 690              		.loc 1 346 0
 691 05c4 44C09DE5 		ldr	ip, [sp, #68]
 692 05c8 F82058E1 		ldrsh	r2, [r8, #-8]
 693 05cc 043083E0 		add	r3, r3, r4
 694              	.LVL44:
 695              		.loc 1 278 0
 696 05d0 00106112 		rsbne	r1, r1, #0
 697 05d4 18108D15 		strne	r1, [sp, #24]
 698              		.loc 1 282 0
 699 05d8 18108D05 		streq	r1, [sp, #24]
 700              		.loc 1 346 0
 701 05dc 93C22CE0 		mla	ip, r3, r2, ip
 702 05e0 FC1058E1 		ldrsh	r1, [r8, #-12]
 703 05e4 3C209DE5 		ldr	r2, [sp, #60]
 704 05e8 54609DE5 		ldr	r6, [sp, #84]
 705 05ec 58509DE5 		ldr	r5, [sp, #88]
 706 05f0 70709DE5 		ldr	r7, [sp, #112]
 707 05f4 68909DE5 		ldr	r9, [sp, #104]
 708 05f8 40A09DE5 		ldr	sl, [sp, #64]
 709 05fc 38B09DE5 		ldr	fp, [sp, #56]
 710 0600 932122E0 		mla	r2, r3, r1, r2
 711 0604 055066E0 		rsb	r5, r6, r5
 712 0608 867087E0 		add	r7, r7, r6, asl #1
 713 060c 069089E0 		add	r9, r9, r6
 714 0610 0CC08AE0 		add	ip, sl, ip
 715 0614 02208BE0 		add	r2, fp, r2
 716 0618 14508DE5 		str	r5, [sp, #20]
 717 061c 10708DE5 		str	r7, [sp, #16]
 718 0620 1C908DE5 		str	r9, [sp, #28]
 719 0624 04E09DE5 		ldr	lr, [sp, #4]
 720 0628 18409DE5 		ldr	r4, [sp, #24]
 721 062c 4C609DE5 		ldr	r6, [sp, #76]
 722 0630 50A09DE5 		ldr	sl, [sp, #80]
 723 0634 28B09DE5 		ldr	fp, [sp, #40]
 724              	#APP
 725              		1:						
 726 0638 0100D9E4 		ldrb	r0, [r9], #1			
 727 063c 027087E2 		add	r7, r7, #2			
 728 0640 00005BE1 		cmp	fp, r0			
 729 0644 AA01009A 		bls	2f				
ARM GAS  /tmp/ccNOn6pJ.s 			page 20


 730 0648 4239A0E1 		mov	r3, r2, asr #18		
 731 064c 4C3993E1 		orrs	r3, r3, ip, asr #18		
 732 0650 AA01001A 		bne	2f				
 733              							
 734 0654 78109DE5 		ldr	r1, [sp, #120]			
 735 0658 74009DE5 		ldr	r0, [sp, #116]			
 736 065c 4C1201E0 		and	r1, r1, ip, asr #4		
 737 0660 C20300E0 		and	r0, r0, r2, asr #7		
 738              							
 739 0664 7F3001E2 		and	r3, r1, #0x7f			
 740 0668 033041E0 		sub	r3, r1, r3			
 741 066c 403283E0 		add	r3, r3, r0, asr #4		
 742 0670 8330D6E7 		ldrb	r3, [r6, r3, lsl #1]	
 743 0674 701001E2 		and	r1, r1, #0x70			
 744              							
 745 0678 833386E0 		add	r3, r6, r3, lsl #7		
 746              							
 747 067c 0E0000E2 		and	r0, r0, #14			
 748 0680 013083E0 		add	r3, r3, r1			
 749 0684 003083E0 		add	r3, r3, r0			
 750              							
 751 0688 0100D3E5 		ldrb	r0, [r3, #1]			
 752 068c 0E2082E0 		add	r2, r2, lr		
 753 0690 000050E3 		cmp	r0, #0				
 754 0694 00119A17 		ldrne	r1, [sl, r0, lsl #2]	
 755 0698 01B04915 		strneb	fp, [r9, #-1]		
 756 069c 04C08CE0 		add	ip, ip, r4		
 757 06a0 B2104711 		strneh	r1, [r7, #-2]			
 758 06a4 015055E2 		subs	r5, r5, #1			
 759 06a8 8C01001A 		bne	1b				
 760 06ac AE0100EA 		b	3f				
 761              	2:						
 762 06b0 0E2082E0 		add	r2, r2, lr		
 763 06b4 04C08CE0 		add	ip, ip, r4		
 764 06b8 015055E2 		subs	r5, r5, #1			
 765 06bc 8C01001A 		bne	1b				
 766              	3:						
 767              	
 768              	.L37:
 769              		.loc 1 266 0
 770 06c0 64C09DE5 		ldr	ip, [sp, #100]
 771 06c4 08E09DE5 		ldr	lr, [sp, #8]
 772 06c8 01C08CE2 		add	ip, ip, #1
 773 06cc 18E08EE2 		add	lr, lr, #24
 774 06d0 64C08DE5 		str	ip, [sp, #100]
 775 06d4 08E08DE5 		str	lr, [sp, #8]
 776              	.LVL45:
 777              	.L33:
 778 06d8 64009DE5 		ldr	r0, [sp, #100]
 779 06dc 5C109DE5 		ldr	r1, [sp, #92]
 780 06e0 010050E1 		cmp	r0, r1
 781 06e4 5801001A 		bne	.L34
 782              		.loc 1 250 0
 783 06e8 00209DE5 		ldr	r2, [sp, #0]
 784 06ec 70309DE5 		ldr	r3, [sp, #112]
 785              	.LVL46:
 786 06f0 68409DE5 		ldr	r4, [sp, #104]
ARM GAS  /tmp/ccNOn6pJ.s 			page 21


 787 06f4 6C509DE5 		ldr	r5, [sp, #108]
 788 06f8 0C609DE5 		ldr	r6, [sp, #12]
 789 06fc 012082E2 		add	r2, r2, #1
 790 0700 0A3D83E2 		add	r3, r3, #640
 791 0704 054D84E2 		add	r4, r4, #320
 792 0708 015045E2 		sub	r5, r5, #1
 793 070c 106086E2 		add	r6, r6, #16
 794 0710 0C8088E2 		add	r8, r8, #12
 795 0714 00208DE5 		str	r2, [sp, #0]
 796 0718 70308DE5 		str	r3, [sp, #112]
 797 071c 68408DE5 		str	r4, [sp, #104]
 798 0720 6C508DE5 		str	r5, [sp, #108]
 799 0724 0C608DE5 		str	r6, [sp, #12]
 800              	.LVL47:
 801              	.L28:
 802 0728 00709DE5 		ldr	r7, [sp, #0]
 803 072c 30909DE5 		ldr	r9, [sp, #48]
 804 0730 090057E1 		cmp	r7, r9
 805 0734 3401009A 		bls	.L29
 806              	.LBE10:
 347:mode7.cpp     ****  	 }
 348:mode7.cpp     ****    }
 349:mode7.cpp     **** }
 807              		.loc 1 349 0
 808 0738 7CD08DE2 		add	sp, sp, #124
 809 073c F08FBDE8 		ldmfd	sp!, {r4, r5, r6, r7, r8, r9, sl, fp, pc}
 810              	.L45:
 811              		.align	2
 812              	.L44:
 813 0740 00000000 		.word	Settings
 814 0744 00000000 		.word	GFX
 815 0748 00000000 		.word	PPU
 816 074c FF070000 		.word	2047
 817 0750 00000000 		.word	LineMatrixData
 818 0754 00000000 		.word	Memory
 819 0758 00000000 		.word	LineData
 820              	.LFE30:
 821              		.size	_Z27DrawBGMode7Background16R1R2Phii, .-_Z27DrawBGMode7Background16R1R2Phii
 822              		.align	2
 823 075c 0000A0E1 		.p2align 5,,31
 824              		.global	_Z25DrawBGMode7Background16R0Phii
 825              		.type	_Z25DrawBGMode7Background16R0Phii, %function
 826              	_Z25DrawBGMode7Background16R0Phii:
 827              	.LFB31:
 350:mode7.cpp     **** 
 351:mode7.cpp     **** 
 352:mode7.cpp     **** void DrawBGMode7Background16R0 (uint8 *Screen, int bg, int depth)
 828              		.loc 1 352 0
 829              		@ args = 0, pretend = 0, frame = 120
 830              		@ frame_needed = 0, uses_anonymous_args = 0
 831              	.LVL48:
 832              	.LBB11:
 353:mode7.cpp     **** {  
 354:mode7.cpp     ****     int aa, cc;  
 355:mode7.cpp     ****     int startx; 
 356:mode7.cpp     ****     uint32 Left; 
 357:mode7.cpp     ****     uint32 Right; 
ARM GAS  /tmp/ccNOn6pJ.s 			page 22


 358:mode7.cpp     ****     uint32 ClipCount = GFX.pCurrentClip->Count [0]; 
 833              		.loc 1 358 0
 834 0760 10C39FE5 		ldr	ip, .L66
 835              	.LBE11:
 836              		.loc 1 352 0
 837 0764 F04F2DE9 		stmfd	sp!, {r4, r5, r6, r7, r8, r9, sl, fp, lr}
 838              	.LCFI4:
 839              	.LBB12:
 359:mode7.cpp     ****     
 360:mode7.cpp     ****     int32 HOffset; 
 361:mode7.cpp     ****     int32 VOffset; 
 362:mode7.cpp     ****     int32 CentreX; 
 363:mode7.cpp     ****     int32 CentreY;
 364:mode7.cpp     ****     uint16 *p;
 365:mode7.cpp     ****     uint8 *d;
 366:mode7.cpp     ****     int yy; 
 367:mode7.cpp     ****     int xx; 
 368:mode7.cpp     ****     int BB; 
 369:mode7.cpp     ****     int DD; 
 370:mode7.cpp     ****     uint32 Line;
 371:mode7.cpp     ****     uint32 clip;
 372:mode7.cpp     ****     struct SLineMatrixData *l;
 373:mode7.cpp     ****     uint8 *Depth;
 374:mode7.cpp     ****      
 375:mode7.cpp     **** 
 376:mode7.cpp     **** 	Left = 0; 
 377:mode7.cpp     **** 	Right = 256; 
 378:mode7.cpp     **** 
 379:mode7.cpp     **** 
 380:mode7.cpp     ****     if (!ClipCount) ClipCount = 1; 
 381:mode7.cpp     **** 
 382:mode7.cpp     **** 
 383:mode7.cpp     ****     l = &LineMatrixData [GFX.StartY];
 840              		.loc 1 383 0
 841 0768 48309CE5 		ldr	r3, [ip, #72]
 842              	.LBE12:
 843              		.loc 1 352 0
 844 076c 78D04DE2 		sub	sp, sp, #120
 845              	.LCFI5:
 846              	.LBB13:
 847              		.loc 1 383 0
 848 0770 00308DE5 		str	r3, [sp, #0]
 849              	.LVL49:
 384:mode7.cpp     ****     Screen  += GFX.StartY * GFX_PITCH;
 385:mode7.cpp     ****     Depth = GFX.DB + GFX.StartY * GFX_PPL;
 386:mode7.cpp     **** 
 387:mode7.cpp     ****     for (Line = GFX.StartY; Line <= GFX.EndY; Line++, Screen += GFX_PITCH, Depth += GFX_PPL, l++) {
 388:mode7.cpp     **** 	HOffset = ((int32) LineData[Line].BG[0].HOffset << M7) >> M7; 
 389:mode7.cpp     **** 	VOffset = ((int32) LineData[Line].BG[0].VOffset << M7) >> M7; 
 390:mode7.cpp     **** 
 391:mode7.cpp     **** 	CentreX = ((int32) l->CentreX << M7) >> M7; 
 392:mode7.cpp     **** 	CentreY = ((int32) l->CentreY << M7) >> M7; 
 393:mode7.cpp     **** 
 394:mode7.cpp     **** 	if (PPU.Mode7VFlip) yy = 255 - (int) Line; 
 395:mode7.cpp     **** 	else yy = Line; 
 396:mode7.cpp     **** 
 397:mode7.cpp     **** 	/*yy += (VOffset - CentreY) % 1023;
ARM GAS  /tmp/ccNOn6pJ.s 			page 23


 398:mode7.cpp     **** 	xx = (HOffset - CentreX) % 1023;
 399:mode7.cpp     **** */
 400:mode7.cpp     **** 
 401:mode7.cpp     **** 	yy += ((VOffset - CentreY) << (32-10+1)) >> (32-10+1) ;
 402:mode7.cpp     **** 	xx = ((HOffset - CentreX) << (32-10+1)) >> (32-10+1);
 403:mode7.cpp     **** 
 404:mode7.cpp     **** 	BB = l->MatrixB * yy + (CentreX << 8); 
 405:mode7.cpp     **** 	DD = l->MatrixD * yy + (CentreY << 8); 
 406:mode7.cpp     **** 
 407:mode7.cpp     **** 	for (clip = 0; clip < ClipCount; clip++) 
 408:mode7.cpp     **** 	{ 
 409:mode7.cpp     **** 	    if (GFX.pCurrentClip->Count [0]){ 
 410:mode7.cpp     **** 			Left = GFX.pCurrentClip->Left [clip][0]; 
 411:mode7.cpp     **** 			Right = GFX.pCurrentClip->Right [clip][0]; 
 412:mode7.cpp     **** 			if (Right <= Left) continue; 
 413:mode7.cpp     **** 	    	} 
 414:mode7.cpp     **** 
 415:mode7.cpp     **** 	    p = (uint16 *) Screen + Left; 
 416:mode7.cpp     **** 	    d = Depth + Left;
 417:mode7.cpp     **** 
 418:mode7.cpp     **** 	    if (PPU.Mode7HFlip) { 
 419:mode7.cpp     **** 			startx = Right - 1; 
 420:mode7.cpp     **** 			aa = -l->MatrixA; 
 421:mode7.cpp     **** 			cc = -l->MatrixC;
 422:mode7.cpp     **** 	    } else { 
 423:mode7.cpp     **** 			startx = Left; 
 424:mode7.cpp     **** 			aa = l->MatrixA; 
 425:mode7.cpp     **** 			cc = l->MatrixC;
 426:mode7.cpp     **** 	    } 
 427:mode7.cpp     **** 		asm volatile (
 428:mode7.cpp     **** 		"	b	1f				\n"
 429:mode7.cpp     **** 		//"7:						\n" // AndByX
 430:mode7.cpp     **** 		//"	.word	(0x3ff << 1)                    \n"
 431:mode7.cpp     **** 		"8:						\n" // AndByY
 432:mode7.cpp     **** 		"	.word	(0x3ff << 4)                    \n"
 433:mode7.cpp     **** 		"						\n"
 434:mode7.cpp     **** 		"1:						\n"
 435:mode7.cpp     **** 		"	ldrb	r0, [%[d]], #1			\n"
 436:mode7.cpp     **** 		"	ldr	r3, 8b				\n"
 437:mode7.cpp     **** 		"	add	%[p], %[p], #2			\n"
 438:mode7.cpp     **** 		"	cmp	%[depth], r0			\n"
 439:mode7.cpp     **** 		"	bls	2f				\n"
 440:mode7.cpp     **** 		"	and	r1, r3, %[CC], asr #4		\n"
 441:mode7.cpp     **** 		//"	ldr	r0, 7b				\n"
 442:mode7.cpp     **** 		"	mov	r0, r3, asr #3			\n"		
 443:mode7.cpp     **** 		"	and	r3, r1, #0x7f			\n" 
 444:mode7.cpp     **** 		"	and	r0, r0, %[AA], asr #7		\n"
 445:mode7.cpp     **** 		"	sub	r3, r1, r3			\n" 
 446:mode7.cpp     **** 		"	add	r3, r3, r0, asr #4		\n"
 447:mode7.cpp     **** 		//"	add	r3, r3, r3			\n"
 448:mode7.cpp     **** 		"	ldrb	r3, [%[VRAM], r3, lsl #1]	\n"
 449:mode7.cpp     **** 		"						\n"
 450:mode7.cpp     **** 		"	and	r1, r1, #0x70			\n"
 451:mode7.cpp     **** 		"	add	r3, %[VRAM], r3, lsl #7		\n"
 452:mode7.cpp     **** 		"						\n"
 453:mode7.cpp     **** 		"	and	r0, r0, #14			\n"
 454:mode7.cpp     **** 		"	add	r3, r3, r1			\n"
ARM GAS  /tmp/ccNOn6pJ.s 			page 24


 455:mode7.cpp     **** 		"	add	r3, r3, r0			\n"
 456:mode7.cpp     **** 		"						\n"
 457:mode7.cpp     **** 		"	ldrb	r0, [r3, #1]			\n"
 458:mode7.cpp     **** 		"	cmp	r0, #0				\n"		
 459:mode7.cpp     **** 		"	ldrne	r1, [%[colors], r0, lsl #2]	\n"	
 460:mode7.cpp     **** 		"	strneb	%[depth], [%[d], #-1]		\n"
 461:mode7.cpp     **** 		"	strneh	r1, [%[p], #-2]			\n"		
 462:mode7.cpp     **** 		"						\n"
 463:mode7.cpp     **** 		"2:						\n"
 464:mode7.cpp     **** 		"	add	%[AA], %[AA], %[daa]		\n"
 465:mode7.cpp     **** 		"	add	%[CC], %[CC], %[dcc]		\n"
 466:mode7.cpp     **** 		//"	add	%[p], %[p], #2			\n"
 467:mode7.cpp     **** 		//"	add	%[d], %[d], #1			\n"		
 468:mode7.cpp     **** 		"	subs	%[x], %[x], #1			\n"
 469:mode7.cpp     **** 		"	bne	1b				\n"
 470:mode7.cpp     **** 		:
 471:mode7.cpp     **** 		: [x] "r" (Right - Left),
 472:mode7.cpp     **** 		  [AA] "r" (l->MatrixA * (startx + xx) + BB),
 473:mode7.cpp     **** 		  [CC] "r" (l->MatrixC * (startx + xx) + DD),
 474:mode7.cpp     **** 		  [daa] "r" (aa),
 475:mode7.cpp     **** 		  [dcc] "r" (cc),
 476:mode7.cpp     **** 		  [VRAM] "r" (Memory.VRAM),
 477:mode7.cpp     **** 		  [colors] "r" (GFX.ScreenColors),
 478:mode7.cpp     **** 		  [p] "r" (p),
 479:mode7.cpp     **** 		  [d] "r" (d), 
 480:mode7.cpp     **** 		  [depth] "r" (depth)
 481:mode7.cpp     **** 		: "r0", "r1", "r3", "cc"
 482:mode7.cpp     **** 		);
 850              		.loc 1 482 0
 851 0774 00509DE5 		ldr	r5, [sp, #0]
 852 0778 FC329FE5 		ldr	r3, .L66+4
 853              		.loc 1 385 0
 854 077c 28E09CE5 		ldr	lr, [ip, #40]
 855              		.loc 1 482 0
 856 0780 0C10A0E3 		mov	r1, #12
 857              	.LVL50:
 858              		.loc 1 385 0
 859 0784 00709DE5 		ldr	r7, [sp, #0]
 860              		.loc 1 482 0
 861 0788 953121E0 		mla	r1, r5, r1, r3
 862              		.loc 1 384 0
 863 078c 0A3DA0E3 		mov	r3, #640
 864              		.loc 1 358 0
 865 0790 50409CE5 		ldr	r4, [ip, #80]
 866              		.loc 1 384 0
 867 0794 930525E0 		mla	r5, r3, r5, r0
 868              		.loc 1 385 0
 869 0798 053D43E2 		sub	r3, r3, #320
 870 079c 93E727E0 		mla	r7, r3, r7, lr
 871              		.loc 1 482 0
 872 07a0 D8329FE5 		ldr	r3, .L66+8
 873              		.loc 1 358 0
 874 07a4 2C408DE5 		str	r4, [sp, #44]
 875              		.loc 1 482 0
 876 07a8 083093E5 		ldr	r3, [r3, #8]
 877              		.loc 1 358 0
 878 07ac 2C609DE5 		ldr	r6, [sp, #44]
ARM GAS  /tmp/ccNOn6pJ.s 			page 25


 879              		.loc 1 394 0
 880 07b0 CC429FE5 		ldr	r4, .L66+12
 881              		.loc 1 358 0
 882 07b4 006096E5 		ldr	r6, [r6, #0]
 883              		.loc 1 482 0
 884 07b8 00B09DE5 		ldr	fp, [sp, #0]
 885 07bc 4C308DE5 		str	r3, [sp, #76]
 886 07c0 C0329FE5 		ldr	r3, .L66+16
 887 07c4 2CA09CE5 		ldr	sl, [ip, #44]
 888              		.loc 1 387 0
 889 07c8 4CC09CE5 		ldr	ip, [ip, #76]
 890              		.loc 1 418 0
 891 07cc B79AD4E5 		ldrb	r9, [r4, #2743]	@ zero_extendqisi2
 892              		.loc 1 394 0
 893 07d0 B84AD4E5 		ldrb	r4, [r4, #2744]	@ zero_extendqisi2
 894              		.loc 1 482 0
 895 07d4 0B3283E0 		add	r3, r3, fp, asl #4
 896              		.loc 1 380 0
 897 07d8 000056E3 		cmp	r6, #0
 898              		.loc 1 358 0
 899 07dc 74608DE5 		str	r6, [sp, #116]
 900              	.LVL51:
 901              		.loc 1 387 0
 902 07e0 30C08DE5 		str	ip, [sp, #48]
 903              		.loc 1 380 0
 904 07e4 0160A003 		moveq	r6, #1
 905              		.loc 1 482 0
 906 07e8 023083E2 		add	r3, r3, #2
 907 07ec FFC06BE2 		rsb	ip, fp, #255
 908 07f0 00E0A0E3 		mov	lr, #0
 909 07f4 010CA0E3 		mov	r0, #256
 910              	.LVL52:
 911 07f8 0C8081E2 		add	r8, r1, #12
 912              		.loc 1 384 0
 913 07fc 70508DE5 		str	r5, [sp, #112]
 914              	.LVL53:
 915              		.loc 1 385 0
 916 0800 68708DE5 		str	r7, [sp, #104]
 917              	.LVL54:
 918              		.loc 1 418 0
 919 0804 48908DE5 		str	r9, [sp, #72]
 920              		.loc 1 482 0
 921 0808 50A08DE5 		str	sl, [sp, #80]
 922              		.loc 1 394 0
 923 080c 34408DE5 		str	r4, [sp, #52]
 924              		.loc 1 380 0
 925 0810 5C608DE5 		str	r6, [sp, #92]
 926              	.LVL55:
 927              	.LBE13:
 928              		.loc 1 352 0
 929 0814 28208DE5 		str	r2, [sp, #40]
 930              	.LBB14:
 931              		.loc 1 482 0
 932 0818 0C308DE5 		str	r3, [sp, #12]
 933 081c 6CC08DE5 		str	ip, [sp, #108]
 934 0820 54E08DE5 		str	lr, [sp, #84]
 935              	.LVL56:
ARM GAS  /tmp/ccNOn6pJ.s 			page 26


 936 0824 58008DE5 		str	r0, [sp, #88]
 937              	.LVL57:
 938 0828 960200EA 		b	.L50
 939              	.LVL58:
 940              	.L51:
 941              		.loc 1 389 0
 942 082c 0C309DE5 		ldr	r3, [sp, #12]
 943              		.loc 1 392 0
 944 0830 F2C058E1 		ldrsh	ip, [r8, #-2]
 945              		.loc 1 389 0
 946 0834 B22053E1 		ldrh	r2, [r3, #-2]
 947              		.loc 1 394 0
 948 0838 34609DE5 		ldr	r6, [sp, #52]
 949              		.loc 1 392 0
 950 083c 8CC9A0E1 		mov	ip, ip, asl #19
 951              		.loc 1 391 0
 952 0840 F40058E1 		ldrsh	r0, [r8, #-4]
 953              		.loc 1 394 0
 954 0844 6C509DE5 		ldr	r5, [sp, #108]
 955              		.loc 1 392 0
 956 0848 CCC9A0E1 		mov	ip, ip, asr #19
 957              	.LVL59:
 958              		.loc 1 388 0
 959 084c B010D3E1 		ldrh	r1, [r3, #0]
 960              		.loc 1 394 0
 961 0850 00309DE5 		ldr	r3, [sp, #0]
 962              	.LVL60:
 963              		.loc 1 401 0
 964 0854 02206CE0 		rsb	r2, ip, r2
 965              		.loc 1 404 0
 966 0858 FA4058E1 		ldrsh	r4, [r8, #-10]
 967              		.loc 1 405 0
 968 085c F6E058E1 		ldrsh	lr, [r8, #-6]
 969              		.loc 1 394 0
 970 0860 000056E3 		cmp	r6, #0
 971 0864 0530A011 		movne	r3, r5
 972              		.loc 1 391 0
 973 0868 8009A0E1 		mov	r0, r0, asl #19
 974              		.loc 1 401 0
 975 086c 822BA0E1 		mov	r2, r2, asl #23
 976 0870 C23B83E0 		add	r3, r3, r2, asr #23
 977              	.LVL61:
 978              		.loc 1 391 0
 979 0874 C009A0E1 		mov	r0, r0, asr #19
 980              	.LVL62:
 981              		.loc 1 402 0
 982 0878 011060E0 		rsb	r1, r0, r1
 983              		.loc 1 405 0
 984 087c 930E0EE0 		mul	lr, r3, lr
 985              		.loc 1 404 0
 986 0880 930404E0 		mul	r4, r3, r4
 987              		.loc 1 405 0
 988 0884 2C709DE5 		ldr	r7, [sp, #44]
 989              		.loc 1 402 0
 990 0888 811BA0E1 		mov	r1, r1, asl #23
 991 088c C11BA0E1 		mov	r1, r1, asr #23
 992              		.loc 1 404 0
ARM GAS  /tmp/ccNOn6pJ.s 			page 27


 993 0890 0004A0E1 		mov	r0, r0, asl #8
 994              	.LVL63:
 995              		.loc 1 405 0
 996 0894 0CC4A0E1 		mov	ip, ip, asl #8
 997              	.LVL64:
 998 0898 0090A0E3 		mov	r9, #0
 999 089c 40E08DE5 		str	lr, [sp, #64]
 1000              		.loc 1 404 0
 1001 08a0 38408DE5 		str	r4, [sp, #56]
 1002              		.loc 1 402 0
 1003 08a4 60108DE5 		str	r1, [sp, #96]
 1004              		.loc 1 404 0
 1005 08a8 3C008DE5 		str	r0, [sp, #60]
 1006              		.loc 1 405 0
 1007 08ac 44C08DE5 		str	ip, [sp, #68]
 1008 08b0 08708DE5 		str	r7, [sp, #8]
 1009 08b4 64908DE5 		str	r9, [sp, #100]
 1010 08b8 820200EA 		b	.L55
 1011              	.L56:
 1012              		.loc 1 409 0
 1013 08bc 74A09DE5 		ldr	sl, [sp, #116]
 1014 08c0 00005AE3 		cmp	sl, #0
 1015 08c4 3802000A 		beq	.L57
 1016              		.loc 1 410 0
 1017 08c8 08B09DE5 		ldr	fp, [sp, #8]
 1018              		.loc 1 411 0
 1019 08cc 08C09DE5 		ldr	ip, [sp, #8]
 1020              		.loc 1 410 0
 1021 08d0 18B09BE5 		ldr	fp, [fp, #24]
 1022              		.loc 1 411 0
 1023 08d4 A8C09CE5 		ldr	ip, [ip, #168]
 1024              		.loc 1 410 0
 1025 08d8 54B08DE5 		str	fp, [sp, #84]
 1026              		.loc 1 412 0
 1027 08dc 0B005CE1 		cmp	ip, fp
 1028              		.loc 1 411 0
 1029 08e0 58C08DE5 		str	ip, [sp, #88]
 1030              		.loc 1 412 0
 1031 08e4 7C02009A 		bls	.L59
 1032              	.L57:
 1033              		.loc 1 418 0
 1034 08e8 48E09DE5 		ldr	lr, [sp, #72]
 1035 08ec FC2058E1 		ldrsh	r2, [r8, #-12]
 1036              		.loc 1 419 0
 1037 08f0 58009DE5 		ldr	r0, [sp, #88]
 1038              		.loc 1 418 0
 1039 08f4 00005EE3 		cmp	lr, #0
 1040 08f8 F81058E1 		ldrsh	r1, [r8, #-8]
 1041              		.loc 1 419 0
 1042 08fc 013040E2 		sub	r3, r0, #1
 1043              	.LVL65:
 1044              		.loc 1 420 0
 1045 0900 00206212 		rsbne	r2, r2, #0
 1046              		.loc 1 482 0
 1047 0904 60409DE5 		ldr	r4, [sp, #96]
 1048              		.loc 1 423 0
 1049 0908 54309D05 		ldreq	r3, [sp, #84]
ARM GAS  /tmp/ccNOn6pJ.s 			page 28


 1050              		.loc 1 420 0
 1051 090c 04208D15 		strne	r2, [sp, #4]
 1052              		.loc 1 424 0
 1053 0910 04208D05 		streq	r2, [sp, #4]
 1054              		.loc 1 482 0
 1055 0914 44C09DE5 		ldr	ip, [sp, #68]
 1056 0918 F82058E1 		ldrsh	r2, [r8, #-8]
 1057 091c 043083E0 		add	r3, r3, r4
 1058              	.LVL66:
 1059              		.loc 1 421 0
 1060 0920 00106112 		rsbne	r1, r1, #0
 1061 0924 18108D15 		strne	r1, [sp, #24]
 1062              		.loc 1 425 0
 1063 0928 18108D05 		streq	r1, [sp, #24]
 1064              		.loc 1 482 0
 1065 092c 93C22CE0 		mla	ip, r3, r2, ip
 1066 0930 FC1058E1 		ldrsh	r1, [r8, #-12]
 1067 0934 3C209DE5 		ldr	r2, [sp, #60]
 1068 0938 54609DE5 		ldr	r6, [sp, #84]
 1069 093c 58509DE5 		ldr	r5, [sp, #88]
 1070 0940 70709DE5 		ldr	r7, [sp, #112]
 1071 0944 68909DE5 		ldr	r9, [sp, #104]
 1072 0948 40A09DE5 		ldr	sl, [sp, #64]
 1073 094c 38B09DE5 		ldr	fp, [sp, #56]
 1074 0950 932122E0 		mla	r2, r3, r1, r2
 1075 0954 055066E0 		rsb	r5, r6, r5
 1076 0958 867087E0 		add	r7, r7, r6, asl #1
 1077 095c 069089E0 		add	r9, r9, r6
 1078 0960 0CC08AE0 		add	ip, sl, ip
 1079 0964 02208BE0 		add	r2, fp, r2
 1080 0968 14508DE5 		str	r5, [sp, #20]
 1081 096c 10708DE5 		str	r7, [sp, #16]
 1082 0970 1C908DE5 		str	r9, [sp, #28]
 1083 0974 04E09DE5 		ldr	lr, [sp, #4]
 1084 0978 18409DE5 		ldr	r4, [sp, #24]
 1085 097c 4C609DE5 		ldr	r6, [sp, #76]
 1086 0980 50A09DE5 		ldr	sl, [sp, #80]
 1087 0984 28B09DE5 		ldr	fp, [sp, #40]
 1088              	#APP
 1089 0988 620200EA 			b	1f				
 1090              	8:						
 1091 098c F03F0000 		.word	(0x3ff << 4)                    
 1092              							
 1093              	1:						
 1094 0990 0100D9E4 		ldrb	r0, [r9], #1			
 1095 0994 10301FE5 		ldr	r3, 8b				
 1096 0998 027087E2 		add	r7, r7, #2			
 1097 099c 00005BE1 		cmp	fp, r0			
 1098 09a0 7802009A 		bls	2f				
 1099 09a4 4C1203E0 		and	r1, r3, ip, asr #4		
 1100 09a8 C301A0E1 		mov	r0, r3, asr #3			
 1101 09ac 7F3001E2 		and	r3, r1, #0x7f			
 1102 09b0 C20300E0 		and	r0, r0, r2, asr #7		
 1103 09b4 033041E0 		sub	r3, r1, r3			
 1104 09b8 403283E0 		add	r3, r3, r0, asr #4		
 1105 09bc 8330D6E7 		ldrb	r3, [r6, r3, lsl #1]	
 1106              							
ARM GAS  /tmp/ccNOn6pJ.s 			page 29


 1107 09c0 701001E2 		and	r1, r1, #0x70			
 1108 09c4 833386E0 		add	r3, r6, r3, lsl #7		
 1109              							
 1110 09c8 0E0000E2 		and	r0, r0, #14			
 1111 09cc 013083E0 		add	r3, r3, r1			
 1112 09d0 003083E0 		add	r3, r3, r0			
 1113              							
 1114 09d4 0100D3E5 		ldrb	r0, [r3, #1]			
 1115 09d8 000050E3 		cmp	r0, #0				
 1116 09dc 00119A17 		ldrne	r1, [sl, r0, lsl #2]	
 1117 09e0 01B04915 		strneb	fp, [r9, #-1]		
 1118 09e4 B2104711 		strneh	r1, [r7, #-2]			
 1119              							
 1120              	2:						
 1121 09e8 0E2082E0 		add	r2, r2, lr		
 1122 09ec 04C08CE0 		add	ip, ip, r4		
 1123 09f0 015055E2 		subs	r5, r5, #1			
 1124 09f4 6202001A 		bne	1b				
 1125              	
 1126              	.LVL67:
 1127              	.L59:
 1128              		.loc 1 407 0
 1129 09f8 64C09DE5 		ldr	ip, [sp, #100]
 1130 09fc 08E09DE5 		ldr	lr, [sp, #8]
 1131 0a00 01C08CE2 		add	ip, ip, #1
 1132 0a04 18E08EE2 		add	lr, lr, #24
 1133 0a08 64C08DE5 		str	ip, [sp, #100]
 1134 0a0c 08E08DE5 		str	lr, [sp, #8]
 1135              	.L55:
 1136 0a10 64009DE5 		ldr	r0, [sp, #100]
 1137 0a14 5C209DE5 		ldr	r2, [sp, #92]
 1138 0a18 020050E1 		cmp	r0, r2
 1139 0a1c 2D02001A 		bne	.L56
 1140              		.loc 1 387 0
 1141 0a20 00309DE5 		ldr	r3, [sp, #0]
 1142              	.LVL68:
 1143 0a24 70409DE5 		ldr	r4, [sp, #112]
 1144 0a28 68509DE5 		ldr	r5, [sp, #104]
 1145 0a2c 6C609DE5 		ldr	r6, [sp, #108]
 1146 0a30 0C709DE5 		ldr	r7, [sp, #12]
 1147 0a34 013083E2 		add	r3, r3, #1
 1148 0a38 0A4D84E2 		add	r4, r4, #640
 1149 0a3c 055D85E2 		add	r5, r5, #320
 1150 0a40 016046E2 		sub	r6, r6, #1
 1151 0a44 107087E2 		add	r7, r7, #16
 1152 0a48 0C8088E2 		add	r8, r8, #12
 1153 0a4c 00308DE5 		str	r3, [sp, #0]
 1154 0a50 70408DE5 		str	r4, [sp, #112]
 1155 0a54 68508DE5 		str	r5, [sp, #104]
 1156 0a58 6C608DE5 		str	r6, [sp, #108]
 1157 0a5c 0C708DE5 		str	r7, [sp, #12]
 1158              	.LVL69:
 1159              	.L50:
 1160 0a60 00909DE5 		ldr	r9, [sp, #0]
 1161 0a64 30A09DE5 		ldr	sl, [sp, #48]
 1162 0a68 0A0059E1 		cmp	r9, sl
 1163 0a6c 0902009A 		bls	.L51
ARM GAS  /tmp/ccNOn6pJ.s 			page 30


 1164              	.LBE14:
 483:mode7.cpp     **** 
 484:mode7.cpp     **** 	} 
 485:mode7.cpp     ****     }
 486:mode7.cpp     **** 
 487:mode7.cpp     **** }
 1165              		.loc 1 487 0
 1166 0a70 78D08DE2 		add	sp, sp, #120
 1167 0a74 F08FBDE8 		ldmfd	sp!, {r4, r5, r6, r7, r8, r9, sl, fp, pc}
 1168              	.L67:
 1169              		.align	2
 1170              	.L66:
 1171 0a78 00000000 		.word	GFX
 1172 0a7c 00000000 		.word	LineMatrixData
 1173 0a80 00000000 		.word	Memory
 1174 0a84 00000000 		.word	PPU
 1175 0a88 00000000 		.word	LineData
 1176              	.LFE31:
 1177              		.size	_Z25DrawBGMode7Background16R0Phii, .-_Z25DrawBGMode7Background16R0Phii
 1178              		.align	2
 1179 0a8c 0000A0E1 		.p2align 5,,31
 1179      0000A0E1 
 1179      0000A0E1 
 1179      0000A0E1 
 1179      0000A0E1 
 1180              		.global	_Z23DrawBGMode7Background16Phii
 1181              		.type	_Z23DrawBGMode7Background16Phii, %function
 1182              	_Z23DrawBGMode7Background16Phii:
 1183              	.LFB28:
 1184              		.loc 1 33 0
 1185              		@ args = 0, pretend = 0, frame = 0
 1186              		@ frame_needed = 0, uses_anonymous_args = 0
 1187              	.LVL70:
 1188 0aa0 F0402DE9 		stmfd	sp!, {r4, r5, r6, r7, lr}
 1189              	.LCFI6:
 1190              		.loc 1 38 0
 1191 0aa4 8C709FE5 		ldr	r7, .L81
 1192              		.loc 1 33 0
 1193 0aa8 0040A0E1 		mov	r4, r0
 1194              		.loc 1 38 0
 1195 0aac 6230D7E5 		ldrb	r3, [r7, #98]	@ zero_extendqisi2
 1196              		.loc 1 33 0
 1197 0ab0 0150A0E1 		mov	r5, r1
 1198              		.loc 1 38 0
 1199 0ab4 010013E3 		tst	r3, #1
 1200              		.loc 1 33 0
 1201 0ab8 0260A0E1 		mov	r6, r2
 1202              		.loc 1 41 0
 1203 0abc 78309F05 		ldreq	r3, .L81+4
 1204              		.loc 1 38 0
 1205 0ac0 B502000A 		beq	.L80
 1206              	.LVL71:
 1207              		.loc 1 39 0
 1208 0ac4 74309FE5 		ldr	r3, .L81+8
 1209 0ac8 0730D3E5 		ldrb	r3, [r3, #7]	@ zero_extendqisi2
 1210 0acc 000053E3 		cmp	r3, #0
 1211 0ad0 B402000A 		beq	.L71
ARM GAS  /tmp/ccNOn6pJ.s 			page 31


 1212 0ad4 FEFFFFEB 		bl	S9xBuildDirectColourMaps
 1213              	.LVL72:
 1214              	.L71:
 1215              		.loc 1 40 0
 1216 0ad8 64309FE5 		ldr	r3, .L81+12
 1217              	.L80:
 1218              		.loc 1 41 0
 1219 0adc 2C3087E5 		str	r3, [r7, #44]
 1220              		.loc 1 43 0
 1221 0ae0 60309FE5 		ldr	r3, .L81+16
 1222 0ae4 B93AD3E5 		ldrb	r3, [r3, #2745]	@ zero_extendqisi2
 1223 0ae8 000053E3 		cmp	r3, #0
 1224 0aec BD02000A 		beq	.L75
 1225 0af0 030053E3 		cmp	r3, #3
 1226 0af4 C702001A 		bne	.L79
 1227 0af8 C20200EA 		b	.L76
 1228              	.L75:
 1229              		.loc 1 45 0
 1230 0afc 0400A0E1 		mov	r0, r4
 1231 0b00 0510A0E1 		mov	r1, r5
 1232 0b04 0620A0E1 		mov	r2, r6
 1233              		.loc 1 54 0
 1234 0b08 F040BDE8 		ldmfd	sp!, {r4, r5, r6, r7, lr}
 1235              		.loc 1 45 0
 1236 0b0c FEFFFFEA 		b	_Z25DrawBGMode7Background16R0Phii
 1237              	.LVL73:
 1238              	.L76:
 1239              		.loc 1 48 0
 1240 0b10 0400A0E1 		mov	r0, r4
 1241 0b14 0510A0E1 		mov	r1, r5
 1242 0b18 0620A0E1 		mov	r2, r6
 1243              		.loc 1 54 0
 1244 0b1c F040BDE8 		ldmfd	sp!, {r4, r5, r6, r7, lr}
 1245              		.loc 1 48 0
 1246 0b20 FEFFFFEA 		b	_Z25DrawBGMode7Background16R3Phii
 1247              	.LVL74:
 1248              	.L79:
 1249              		.loc 1 51 0
 1250 0b24 0400A0E1 		mov	r0, r4
 1251 0b28 0510A0E1 		mov	r1, r5
 1252 0b2c 0620A0E1 		mov	r2, r6
 1253              		.loc 1 54 0
 1254 0b30 F040BDE8 		ldmfd	sp!, {r4, r5, r6, r7, lr}
 1255              		.loc 1 51 0
 1256 0b34 FEFFFFEA 		b	_Z27DrawBGMode7Background16R1R2Phii
 1257              	.L82:
 1258              		.align	2
 1259              	.L81:
 1260 0b38 00000000 		.word	GFX
 1261 0b3c 440C0000 		.word	IPPU+3140
 1262 0b40 00000000 		.word	IPPU
 1263 0b44 00000000 		.word	DirectColourMaps
 1264 0b48 00000000 		.word	PPU
 1265              	.LFE28:
 1266              		.size	_Z23DrawBGMode7Background16Phii, .-_Z23DrawBGMode7Background16Phii
 1267              		.section	.debug_frame,"",%progbits
 1268              	.Lframe0:
ARM GAS  /tmp/ccNOn6pJ.s 			page 32


 1269 0000 0C000000 		.4byte	.LECIE0-.LSCIE0
 1270              	.LSCIE0:
 1271 0004 FFFFFFFF 		.4byte	0xffffffff
 1272 0008 01       		.byte	0x1
 1273 0009 00       		.ascii	"\000"
 1274 000a 01       		.uleb128 0x1
 1275 000b 7C       		.sleb128 -4
 1276 000c 0E       		.byte	0xe
 1277 000d 0C       		.byte	0xc
 1278 000e 0D       		.uleb128 0xd
 1279 000f 00       		.uleb128 0x0
 1280              		.align	2
 1281              	.LECIE0:
 1282              	.LSFDE0:
 1283 0010 28000000 		.4byte	.LEFDE0-.LASFDE0
 1284              	.LASFDE0:
 1285 0014 00000000 		.4byte	.Lframe0
 1286 0018 00000000 		.4byte	.LFB29
 1287 001c AC030000 		.4byte	.LFE29-.LFB29
 1288 0020 48       		.byte	0x4
 1289              		.4byte	.LCFI0-.LFB29
 1290 0021 0E       		.byte	0xe
 1291 0022 24       		.uleb128 0x24
 1292 0023 4C       		.byte	0x4
 1293              		.4byte	.LCFI1-.LCFI0
 1294 0024 0E       		.byte	0xe
 1295 0025 AC01     		.uleb128 0xac
 1296 0027 8E       		.byte	0x8e
 1297 0028 01       		.uleb128 0x1
 1298 0029 8B       		.byte	0x8b
 1299 002a 02       		.uleb128 0x2
 1300 002b 8A       		.byte	0x8a
 1301 002c 03       		.uleb128 0x3
 1302 002d 89       		.byte	0x89
 1303 002e 04       		.uleb128 0x4
 1304 002f 88       		.byte	0x88
 1305 0030 05       		.uleb128 0x5
 1306 0031 87       		.byte	0x87
 1307 0032 06       		.uleb128 0x6
 1308 0033 86       		.byte	0x86
 1309 0034 07       		.uleb128 0x7
 1310 0035 85       		.byte	0x85
 1311 0036 08       		.uleb128 0x8
 1312 0037 84       		.byte	0x84
 1313 0038 09       		.uleb128 0x9
 1314 0039 000000   		.align	2
 1315              	.LEFDE0:
 1316              	.LSFDE2:
 1317 003c 28000000 		.4byte	.LEFDE2-.LASFDE2
 1318              	.LASFDE2:
 1319 0040 00000000 		.4byte	.Lframe0
 1320 0044 C0030000 		.4byte	.LFB30
 1321 0048 9C030000 		.4byte	.LFE30-.LFB30
 1322 004c 48       		.byte	0x4
 1323              		.4byte	.LCFI2-.LFB30
 1324 004d 0E       		.byte	0xe
 1325 004e 24       		.uleb128 0x24
ARM GAS  /tmp/ccNOn6pJ.s 			page 33


 1326 004f 8E       		.byte	0x8e
 1327 0050 01       		.uleb128 0x1
 1328 0051 8B       		.byte	0x8b
 1329 0052 02       		.uleb128 0x2
 1330 0053 8A       		.byte	0x8a
 1331 0054 03       		.uleb128 0x3
 1332 0055 89       		.byte	0x89
 1333 0056 04       		.uleb128 0x4
 1334 0057 88       		.byte	0x88
 1335 0058 05       		.uleb128 0x5
 1336 0059 87       		.byte	0x87
 1337 005a 06       		.uleb128 0x6
 1338 005b 86       		.byte	0x86
 1339 005c 07       		.uleb128 0x7
 1340 005d 85       		.byte	0x85
 1341 005e 08       		.uleb128 0x8
 1342 005f 84       		.byte	0x84
 1343 0060 09       		.uleb128 0x9
 1344 0061 54       		.byte	0x4
 1345              		.4byte	.LCFI3-.LCFI2
 1346 0062 0E       		.byte	0xe
 1347 0063 A001     		.uleb128 0xa0
 1348 0065 000000   		.align	2
 1349              	.LEFDE2:
 1350              	.LSFDE4:
 1351 0068 28000000 		.4byte	.LEFDE4-.LASFDE4
 1352              	.LASFDE4:
 1353 006c 00000000 		.4byte	.Lframe0
 1354 0070 60070000 		.4byte	.LFB31
 1355 0074 2C030000 		.4byte	.LFE31-.LFB31
 1356 0078 48       		.byte	0x4
 1357              		.4byte	.LCFI4-.LFB31
 1358 0079 0E       		.byte	0xe
 1359 007a 24       		.uleb128 0x24
 1360 007b 48       		.byte	0x4
 1361              		.4byte	.LCFI5-.LCFI4
 1362 007c 0E       		.byte	0xe
 1363 007d 9C01     		.uleb128 0x9c
 1364 007f 8E       		.byte	0x8e
 1365 0080 01       		.uleb128 0x1
 1366 0081 8B       		.byte	0x8b
 1367 0082 02       		.uleb128 0x2
 1368 0083 8A       		.byte	0x8a
 1369 0084 03       		.uleb128 0x3
 1370 0085 89       		.byte	0x89
 1371 0086 04       		.uleb128 0x4
 1372 0087 88       		.byte	0x88
 1373 0088 05       		.uleb128 0x5
 1374 0089 87       		.byte	0x87
 1375 008a 06       		.uleb128 0x6
 1376 008b 86       		.byte	0x86
 1377 008c 07       		.uleb128 0x7
 1378 008d 85       		.byte	0x85
 1379 008e 08       		.uleb128 0x8
 1380 008f 84       		.byte	0x84
 1381 0090 09       		.uleb128 0x9
 1382 0091 000000   		.align	2
ARM GAS  /tmp/ccNOn6pJ.s 			page 34


 1383              	.LEFDE4:
 1384              	.LSFDE6:
 1385 0094 1C000000 		.4byte	.LEFDE6-.LASFDE6
 1386              	.LASFDE6:
 1387 0098 00000000 		.4byte	.Lframe0
 1388 009c A00A0000 		.4byte	.LFB28
 1389 00a0 AC000000 		.4byte	.LFE28-.LFB28
 1390 00a4 44       		.byte	0x4
 1391              		.4byte	.LCFI6-.LFB28
 1392 00a5 0E       		.byte	0xe
 1393 00a6 14       		.uleb128 0x14
 1394 00a7 8E       		.byte	0x8e
 1395 00a8 01       		.uleb128 0x1
 1396 00a9 87       		.byte	0x87
 1397 00aa 02       		.uleb128 0x2
 1398 00ab 86       		.byte	0x86
 1399 00ac 03       		.uleb128 0x3
 1400 00ad 85       		.byte	0x85
 1401 00ae 04       		.uleb128 0x4
 1402 00af 84       		.byte	0x84
 1403 00b0 05       		.uleb128 0x5
 1404 00b1 000000   		.align	2
 1405              	.LEFDE6:
 1406              		.file 2 "port.h"
 1407              		.file 3 "gfx.h"
 1408              		.file 4 "<built-in>"
 1409              		.file 5 "snes9x.h"
 1410              		.file 6 "65c816.h"
 1411              		.file 7 "memmap.h"
 1412              		.file 8 "rops.h"
 1413              		.file 9 "ppu.h"
 1414              		.file 10 "cpuexec.h"
 1415              		.file 11 "apu.h"
 1416              		.file 12 "spc700.h"
 1417              		.text
 1418              	.Letext0: